 npUnity3D32

 Timestamp is 57875a31 (Thu Jul 14 11:24:01 2016)

 Preferred load address is 10000000

 Start         Length     Name                   Class
 0001:00000000 0003fbc0H .text                   CODE
 0001:0003fbc0 0000016cH .text$x                 CODE
 0001:0003fd2c 0000019aH .text$yc                CODE
 0001:0003fec6 000000f4H .text$yd                CODE
 0002:00000000 00000434H .idata$5                DATA
 0002:00000434 00000004H .CRT$XCA                DATA
 0002:00000438 0000003cH .CRT$XCU                DATA
 0002:00000474 00000004H .CRT$XCZ                DATA
 0002:00000478 00000004H .CRT$XIA                DATA
 0002:0000047c 00000014H .CRT$XIC                DATA
 0002:00000490 00000004H .CRT$XIZ                DATA
 0002:00000494 00000004H .CRT$XPA                DATA
 0002:00000498 00000004H .CRT$XPX                DATA
 0002:0000049c 00000004H .CRT$XPXA               DATA
 0002:000004a0 00000004H .CRT$XPZ                DATA
 0002:000004a4 00000004H .CRT$XTA                DATA
 0002:000004a8 00000004H .CRT$XTZ                DATA
 0002:000004b0 00018798H .rdata                  DATA
 0002:00018c48 0000005aH .rdata$debug            DATA
 0002:00018ca4 00000214H .rdata$r                DATA
 0002:00018ec0 0000009cH .rdata$sxdata           DATA
 0002:00018f5c 00000004H .rtc$IAA                DATA
 0002:00018f60 00000004H .rtc$IZZ                DATA
 0002:00018f64 00000004H .rtc$TAA                DATA
 0002:00018f68 00000004H .rtc$TZZ                DATA
 0002:00018f70 00001390H .xdata$x                DATA
 0002:0001a300 000000c8H .idata$2                DATA
 0002:0001a3c8 00000014H .idata$3                DATA
 0002:0001a3dc 00000434H .idata$4                DATA
 0002:0001a810 0000125aH .idata$6                DATA
 0002:0001ba70 00000099H .edata                  DATA
 0003:00000000 0000165cH .data                   DATA
 0003:00001660 000041c0H .bss                    DATA
 0004:00000000 000003b0H .rsrc$01                DATA
 0004:000003b0 0008a4f0H .rsrc$02                DATA

  Address         Publics by Value              Rva+Base       Lib:Object

 0000:00000000       __except_list              00000000     <absolute>
 0000:00000027       ___safe_se_handler_count   00000027     <absolute>
 0000:00000000       ___ImageBase               10000000     <linker-defined>
 0001:00000000       ??1bad_alloc@std@@UAE@XZ   10001000 f i DownloadManager.obj
 0001:0000000b       ??_Gbad_alloc@std@@UAEPAXI@Z 1000100b f i DownloadManager.obj
 0001:0000000b       ??_Ebad_alloc@std@@UAEPAXI@Z 1000100b f i  CIL library: CIL module
 0001:00000030       ??0DownloaderNetscape@@QAE@ABV?$basic_string@DU?$char_traits@D@std@@V?$allocator@D@2@@std@@AAVLogger@@PAX@Z 10001030 f i DownloadManager.obj
 0001:000000ae       ?OnRedirectAuthorizationResponse@DownloaderNetscape@@UAEX_N@Z 100010ae f i DownloadManager.obj
 0001:000000d4       ??0CrossdomainPolicyManager@@QAE@XZ 100010d4 f i DownloadManager.obj
 0001:000001aa       ?CancelDownload@@YAXPAVDownload@@@Z 100011aa f   DownloadManager.obj
 0001:000001ff       ?RemoveDownload@@YAXPAVDownloaderNetscape@@@Z 100011ff f   DownloadManager.obj
 0001:00000220       ?_StartDownload@@YAPAVDownload@@ABV?$basic_string@DU?$char_traits@D@std@@V?$allocator@D@2@@std@@AAVLogger@@PAXPBXI3IW4RedirectPolicy@1@@Z 10001220 f   DownloadManager.obj
 0001:00000360       ?IsDomainMatch@CrossdomainPolicyEntry@@QBE_NABV?$basic_string@DU?$char_traits@D@std@@V?$allocator@D@2@@std@@@Z 10001360 f   DownloadManager.obj
 0001:000003e3       ?ParseDomainSpecifier@CrossdomainPolicyEntry@@IAE_NABV?$basic_string@DU?$char_traits@D@std@@V?$allocator@D@2@@std@@@Z 100013e3 f   DownloadManager.obj
 0001:000004f7       ??1PluginError@@QAE@XZ     100014f7 f i WebCommonLib:PluginInstance.obj
 0001:000004f7       ??1URLParts@@QAE@XZ        100014f7 f i DownloadManager.obj
 0001:0000050f       ?extractNumber@@YAGABV?$basic_string@DU?$char_traits@D@std@@V?$allocator@D@2@@std@@AAI@Z 1000150f f   DownloadManager.obj
 0001:00000584       ?ParsePortList@CrossdomainPolicyEntry@@IAE_NABV?$basic_string@DU?$char_traits@D@std@@V?$allocator@D@2@@std@@@Z 10001584 f   DownloadManager.obj
 0001:000006a8       ?ParseSecureAttribute@CrossdomainPolicyEntry@@IAE_NABV?$basic_string@DU?$char_traits@D@std@@V?$allocator@D@2@@std@@0@Z 100016a8 f   DownloadManager.obj
 0001:0000071b       ?ParseAttribute@CrossdomainPolicyEntry@@QAE_NABV?$basic_string@DU?$char_traits@D@std@@V?$allocator@D@2@@std@@00@Z 1000171b f   DownloadManager.obj
 0001:000007ab       ?IsAllowed@CrossdomainPolicy@@QBE_NABV?$basic_string@DU?$char_traits@D@std@@V?$allocator@D@2@@std@@0G@Z 100017ab f   DownloadManager.obj
 0001:00000863       ?ParsePolicyXML@CrossdomainPolicy@@QAEXABV?$basic_string@DU?$char_traits@D@std@@V?$allocator@D@2@@std@@@Z 10001863 f   DownloadManager.obj
 0001:00000b32       ?DownloadCompleteCallback@@YAXPAVDownload@@@Z 10001b32 f   DownloadManager.obj
 0001:00000b4f       ?GetURLParts@CrossdomainPolicyManager@@SA?AUURLParts@@ABV?$basic_string@DU?$char_traits@D@std@@V?$allocator@D@2@@std@@@Z 10001b4f f   DownloadManager.obj
 0001:00000d86       ?GetRelevantDomain@CrossdomainPolicyManager@@SA?AV?$basic_string@DU?$char_traits@D@std@@V?$allocator@D@2@@std@@ABUURLParts@@@Z 10001d86 f   DownloadManager.obj
 0001:00000df8       ?RequestAuthorization@CrossdomainPolicyManager@@QAEXABV?$basic_string@DU?$char_traits@D@std@@V?$allocator@D@2@@std@@PAVDownloaderNetscape@@@Z 10001df8 f   DownloadManager.obj
 0001:00001045       ??1?$_Pair_base@$$CBV?$basic_string@DU?$char_traits@D@std@@V?$allocator@D@2@@std@@V?$list@PAVDownloaderNetscape@@V?$allocator@PAVDownloaderNetscape@@@std@@@2@@std@@QAE@XZ 10002045 f i DownloadManager.obj
 0001:00001063       ?OnCrossdomainDownloadComplete@CrossdomainPolicyManager@@QAEXPAVDownload@@@Z 10002063 f   DownloadManager.obj
 0001:000012c1       ??1CrossdomainPolicyManager@@QAE@XZ 100022c1 f   DownloadManager.obj
 0001:00001383       ?GetCrossdomainXMLUrl@CrossdomainPolicyManager@@SA?AV?$basic_string@DU?$char_traits@D@std@@V?$allocator@D@2@@std@@ABUURLParts@@@Z 10002383 f   DownloadManager.obj
 0001:000013fa       ??0?$basic_string@DU?$char_traits@D@std@@V?$allocator@D@2@@std@@QAE@ABV01@@Z 100023fa f i DownloadManager.obj
 0001:00001420       ??0?$basic_string@DU?$char_traits@D@std@@V?$allocator@D@2@@std@@QAE@PBD@Z 10002420 f i DownloadManager.obj
 0001:0000144f       ??0?$basic_string@DU?$char_traits@D@std@@V?$allocator@D@2@@std@@QAE@$$QAV01@@Z 1000244f f i DownloadManager.obj
 0001:00001472       ?find_first_of@?$basic_string@DU?$char_traits@D@std@@V?$allocator@D@2@@std@@QBEIPBDI@Z 10002472 f i DownloadManager.obj
 0001:000014e7       ?find_first_not_of@?$basic_string@DU?$char_traits@D@std@@V?$allocator@D@2@@std@@QBEIPBDI@Z 100024e7 f i DownloadManager.obj
 0001:0000155a       ?substr@?$basic_string@DU?$char_traits@D@std@@V?$allocator@D@2@@std@@QBE?AV12@II@Z 1000255a f i DownloadManager.obj
 0001:00001581       ?compare@?$basic_string@DU?$char_traits@D@std@@V?$allocator@D@2@@std@@QBEHPBD@Z 10002581 f i DownloadManager.obj
 0001:000015a5       ?compare@?$basic_string@DU?$char_traits@D@std@@V?$allocator@D@2@@std@@QBEHIIPBD@Z 100025a5 f i DownloadManager.obj
 0001:000015ca       ??0?$list@VPortRange@@V?$allocator@VPortRange@@@std@@@std@@QAE@ABV01@@Z 100025ca f i DownloadManager.obj
 0001:00001634       ?push_back@?$list@VPortRange@@V?$allocator@VPortRange@@@std@@@std@@QAEX$$QAVPortRange@@@Z 10002634 f i DownloadManager.obj
 0001:00001667       ?clear@?$list@PAVDownloaderNetscape@@V?$allocator@PAVDownloaderNetscape@@@std@@@std@@QAEXXZ 10002667 f i DownloadManager.obj
 0001:00001667       ?clear@?$list@VPortRange@@V?$allocator@VPortRange@@@std@@@std@@QAEXXZ 10002667 f i DownloadManager.obj
 0001:0000168c       ??1?$list@VCrossdomainPolicyEntry@@V?$allocator@VCrossdomainPolicyEntry@@@std@@@std@@QAE@XZ 1000268c f i DownloadManager.obj
 0001:000016e0       ?erase@?$_Tree@V?$_Tmap_traits@V?$basic_string@DU?$char_traits@D@std@@V?$allocator@D@2@@std@@V?$list@PAVDownloaderNetscape@@V?$allocator@PAVDownloaderNetscape@@@std@@@2@U?$less@V?$basic_string@DU?$char_traits@D@std@@V?$allocator@D@2@@std@@@2@V?$allocator@U?$pair@$$CBV?$basic_string@DU?$char_traits@D@std@@V?$allocator@D@2@@std@@V?$list@PAVDownloaderNetscape@@V?$allocator@PAVDownloaderNetscape@@@std@@@2@@std@@@2@$0A@@std@@@std@@QAE?AV?$_Tree_iterator@V?$_Tree_val@V?$_Tmap_traits@V?$basic_string@DU?$char_traits@D@std@@V?$allocator@D@2@@std@@V?$list@PAVDownloaderNetscape@@V?$allocator@PAVDownloaderNetscape@@@std@@@2@U?$less@V?$basic_string@DU?$char_traits@D@std@@V?$allocator@D@2@@std@@@2@V?$allocator@U?$pair@$$CBV?$basic_string@DU?$char_traits@D@std@@V?$allocator@D@2@@std@@V?$list@PAVDownloaderNetscape@@V?$allocator@PAVDownloaderNetscape@@@std@@@2@@std@@@2@$0A@@std@@@std@@@2@V?$_Tree_const_iterator@V?$_Tree_val@V?$_Tmap_traits@V?$basic_string@DU?$char_traits@D@std@@V?$allocator@D@2@@std@@V?$list@PAVDownloaderNetscape@@V?$allocator@PAVDownloaderNetscape@@@std@@@2@U?$less@V?$basic_string@DU?$char_traits@D@std@@V?$allocator@D@2@@std@@@2@V?$allocator@U?$pair@$$CBV?$basic_string@DU?$char_traits@D@std@@V?$allocator@D@2@@std@@V?$list@PAVDownloaderNetscape@@V?$allocator@PAVDownloaderNetscape@@@std@@@2@@std@@@2@$0A@@std@@@std@@@2@@Z 100026e0 f i DownloadManager.obj
 0001:0000193d       ?clear@?$_Tree@V?$_Tmap_traits@V?$basic_string@DU?$char_traits@D@std@@V?$allocator@D@2@@std@@V?$list@PAVDownloaderNetscape@@V?$allocator@PAVDownloaderNetscape@@@std@@@2@U?$less@V?$basic_string@DU?$char_traits@D@std@@V?$allocator@D@2@@std@@@2@V?$allocator@U?$pair@$$CBV?$basic_string@DU?$char_traits@D@std@@V?$allocator@D@2@@std@@V?$list@PAVDownloaderNetscape@@V?$allocator@PAVDownloaderNetscape@@@std@@@2@@std@@@2@$0A@@std@@@std@@QAEXXZ 1000293d f i DownloadManager.obj
 0001:0000196e       ?find@?$_Tree@V?$_Tmap_traits@V?$basic_string@DU?$char_traits@D@std@@V?$allocator@D@2@@std@@V?$list@PAVDownloaderNetscape@@V?$allocator@PAVDownloaderNetscape@@@std@@@2@U?$less@V?$basic_string@DU?$char_traits@D@std@@V?$allocator@D@2@@std@@@2@V?$allocator@U?$pair@$$CBV?$basic_string@DU?$char_traits@D@std@@V?$allocator@D@2@@std@@V?$list@PAVDownloaderNetscape@@V?$allocator@PAVDownloaderNetscape@@@std@@@2@@std@@@2@$0A@@std@@@std@@QAE?AV?$_Tree_iterator@V?$_Tree_val@V?$_Tmap_traits@V?$basic_string@DU?$char_traits@D@std@@V?$allocator@D@2@@std@@V?$list@PAVDownloaderNetscape@@V?$allocator@PAVDownloaderNetscape@@@std@@@2@U?$less@V?$basic_string@DU?$char_traits@D@std@@V?$allocator@D@2@@std@@@2@V?$allocator@U?$pair@$$CBV?$basic_string@DU?$char_traits@D@std@@V?$allocator@D@2@@std@@V?$list@PAVDownloaderNetscape@@V?$allocator@PAVDownloaderNetscape@@@std@@@2@@std@@@2@$0A@@std@@@std@@@2@ABV?$basic_string@DU?$char_traits@D@std@@V?$allocator@D@2@@2@@Z 1000296e f i DownloadManager.obj
 0001:000019ce       ?clear@?$_Tree@V?$_Tmap_traits@V?$basic_string@DU?$char_traits@D@std@@V?$allocator@D@2@@std@@PAVCrossdomainPolicy@@U?$less@V?$basic_string@DU?$char_traits@D@std@@V?$allocator@D@2@@std@@@2@V?$allocator@U?$pair@$$CBV?$basic_string@DU?$char_traits@D@std@@V?$allocator@D@2@@std@@PAVCrossdomainPolicy@@@std@@@2@$0A@@std@@@std@@QAEXXZ 100029ce f i DownloadManager.obj
 0001:000019f3       ?find@?$_Tree@V?$_Tmap_traits@V?$basic_string@DU?$char_traits@D@std@@V?$allocator@D@2@@std@@PAVCrossdomainPolicy@@U?$less@V?$basic_string@DU?$char_traits@D@std@@V?$allocator@D@2@@std@@@2@V?$allocator@U?$pair@$$CBV?$basic_string@DU?$char_traits@D@std@@V?$allocator@D@2@@std@@PAVCrossdomainPolicy@@@std@@@2@$0A@@std@@@std@@QAE?AV?$_Tree_iterator@V?$_Tree_val@V?$_Tmap_traits@V?$basic_string@DU?$char_traits@D@std@@V?$allocator@D@2@@std@@PAVCrossdomainPolicy@@U?$less@V?$basic_string@DU?$char_traits@D@std@@V?$allocator@D@2@@std@@@2@V?$allocator@U?$pair@$$CBV?$basic_string@DU?$char_traits@D@std@@V?$allocator@D@2@@std@@PAVCrossdomainPolicy@@@std@@@2@$0A@@std@@@std@@@2@ABV?$basic_string@DU?$char_traits@D@std@@V?$allocator@D@2@@2@@Z 100029f3 f i DownloadManager.obj
 0001:00001a53       ?erase@?$_Tree@V?$_Tmap_traits@IPAVDownloaderNetscape@@U?$less@I@std@@V?$allocator@U?$pair@$$CBIPAVDownloaderNetscape@@@std@@@3@$0A@@std@@@std@@QAEIABI@Z 10002a53 f i DownloadManager.obj
 0001:00001ae7       ?erase@?$_Tree@V?$_Tmap_traits@PAVDownload@@PAU_NPStream@@U?$less@PAVDownload@@@std@@V?$allocator@U?$pair@QAVDownload@@PAU_NPStream@@@std@@@4@$0A@@std@@@std@@QAEIABQAVDownload@@@Z 10002ae7 f i DownloadManager.obj
 0001:00001b7b       ?find@?$_Tree@V?$_Tmap_traits@PAVDownload@@PAU_NPStream@@U?$less@PAVDownload@@@std@@V?$allocator@U?$pair@QAVDownload@@PAU_NPStream@@@std@@@4@$0A@@std@@@std@@QAE?AV?$_Tree_iterator@V?$_Tree_val@V?$_Tmap_traits@PAVDownload@@PAU_NPStream@@U?$less@PAVDownload@@@std@@V?$allocator@U?$pair@QAVDownload@@PAU_NPStream@@@std@@@4@$0A@@std@@@std@@@2@ABQAVDownload@@@Z 10002b7b f i DownloadManager.obj
 0001:00001bca       ?assign@?$basic_string@DU?$char_traits@D@std@@V?$allocator@D@2@@std@@QAEAAV12@$$QAV12@@Z 10002bca f i DownloadManager.obj
 0001:00001c21       ?assign@?$basic_string@DU?$char_traits@D@std@@V?$allocator@D@2@@std@@QAEAAV12@ABV12@II@Z 10002c21 f i DownloadManager.obj
 0001:00001cba       ?find@?$basic_string@DU?$char_traits@D@std@@V?$allocator@D@2@@std@@QBEIPBDII@Z 10002cba f i DownloadManager.obj
 0001:00001d43       ?compare@?$basic_string@DU?$char_traits@D@std@@V?$allocator@D@2@@std@@QBEHIIPBDI@Z 10002d43 f i DownloadManager.obj
 0001:00001da5       ?_Tidy@?$basic_string@DU?$char_traits@D@std@@V?$allocator@D@2@@std@@QAEX_NI@Z 10002da5 f i DownloadManager.obj
 0001:00001de9       ?_Erase@?$_Tree@V?$_Tmap_traits@V?$basic_string@DU?$char_traits@D@std@@V?$allocator@D@2@@std@@V?$list@PAVDownloaderNetscape@@V?$allocator@PAVDownloaderNetscape@@@std@@@2@U?$less@V?$basic_string@DU?$char_traits@D@std@@V?$allocator@D@2@@std@@@2@V?$allocator@U?$pair@$$CBV?$basic_string@DU?$char_traits@D@std@@V?$allocator@D@2@@std@@V?$list@PAVDownloaderNetscape@@V?$allocator@PAVDownloaderNetscape@@@std@@@2@@std@@@2@$0A@@std@@@std@@IAEXPAU_Node@?$_Tree_nod@V?$_Tmap_traits@V?$basic_string@DU?$char_traits@D@std@@V?$allocator@D@2@@std@@V?$list@PAVDownloaderNetscape@@V?$allocator@PAVDownloaderNetscape@@@std@@@2@U?$less@V?$basic_string@DU?$char_traits@D@std@@V?$allocator@D@2@@std@@@2@V?$allocator@U?$pair@$$CBV?$basic_string@DU?$char_traits@D@std@@V?$allocator@D@2@@std@@V?$list@PAVDownloaderNetscape@@V?$allocator@PAVDownloaderNetscape@@@std@@@2@@std@@@2@$0A@@std@@@2@@Z 10002de9 f i DownloadManager.obj
 0001:00001e29       ?_Lrotate@?$_Tree@V?$_Tmap_traits@V?$basic_string@DU?$char_traits@D@std@@V?$allocator@D@2@@std@@V?$list@PAVDownloaderNetscape@@V?$allocator@PAVDownloaderNetscape@@@std@@@2@U?$less@V?$basic_string@DU?$char_traits@D@std@@V?$allocator@D@2@@std@@@2@V?$allocator@U?$pair@$$CBV?$basic_string@DU?$char_traits@D@std@@V?$allocator@D@2@@std@@V?$list@PAVDownloaderNetscape@@V?$allocator@PAVDownloaderNetscape@@@std@@@2@@std@@@2@$0A@@std@@@std@@IAEXPAU_Node@?$_Tree_nod@V?$_Tmap_traits@V?$basic_string@DU?$char_traits@D@std@@V?$allocator@D@2@@std@@V?$list@PAVDownloaderNetscape@@V?$allocator@PAVDownloaderNetscape@@@std@@@2@U?$less@V?$basic_string@DU?$char_traits@D@std@@V?$allocator@D@2@@std@@@2@V?$allocator@U?$pair@$$CBV?$basic_string@DU?$char_traits@D@std@@V?$allocator@D@2@@std@@V?$list@PAVDownloaderNetscape@@V?$allocator@PAVDownloaderNetscape@@@std@@@2@@std@@@2@$0A@@std@@@2@@Z 10002e29 f i DownloadManager.obj
 0001:00001e6c       ?_Rrotate@?$_Tree@V?$_Tmap_traits@V?$basic_string@DU?$char_traits@D@std@@V?$allocator@D@2@@std@@V?$list@PAVDownloaderNetscape@@V?$allocator@PAVDownloaderNetscape@@@std@@@2@U?$less@V?$basic_string@DU?$char_traits@D@std@@V?$allocator@D@2@@std@@@2@V?$allocator@U?$pair@$$CBV?$basic_string@DU?$char_traits@D@std@@V?$allocator@D@2@@std@@V?$list@PAVDownloaderNetscape@@V?$allocator@PAVDownloaderNetscape@@@std@@@2@@std@@@2@$0A@@std@@@std@@IAEXPAU_Node@?$_Tree_nod@V?$_Tmap_traits@V?$basic_string@DU?$char_traits@D@std@@V?$allocator@D@2@@std@@V?$list@PAVDownloaderNetscape@@V?$allocator@PAVDownloaderNetscape@@@std@@@2@U?$less@V?$basic_string@DU?$char_traits@D@std@@V?$allocator@D@2@@std@@@2@V?$allocator@U?$pair@$$CBV?$basic_string@DU?$char_traits@D@std@@V?$allocator@D@2@@std@@V?$list@PAVDownloaderNetscape@@V?$allocator@PAVDownloaderNetscape@@@std@@@2@@std@@@2@$0A@@std@@@2@@Z 10002e6c f i DownloadManager.obj
 0001:00001eb1       ?_Erase@?$_Tree@V?$_Tmap_traits@V?$basic_string@DU?$char_traits@D@std@@V?$allocator@D@2@@std@@PAVCrossdomainPolicy@@U?$less@V?$basic_string@DU?$char_traits@D@std@@V?$allocator@D@2@@std@@@2@V?$allocator@U?$pair@$$CBV?$basic_string@DU?$char_traits@D@std@@V?$allocator@D@2@@std@@PAVCrossdomainPolicy@@@std@@@2@$0A@@std@@@std@@IAEXPAU_Node@?$_Tree_nod@V?$_Tmap_traits@V?$basic_string@DU?$char_traits@D@std@@V?$allocator@D@2@@std@@PAVCrossdomainPolicy@@U?$less@V?$basic_string@DU?$char_traits@D@std@@V?$allocator@D@2@@std@@@2@V?$allocator@U?$pair@$$CBV?$basic_string@DU?$char_traits@D@std@@V?$allocator@D@2@@std@@PAVCrossdomainPolicy@@@std@@@2@$0A@@std@@@2@@Z 10002eb1 f i DownloadManager.obj
 0001:00001ef3       ?erase@?$_Tree@V?$_Tmap_traits@IPAVDownloaderNetscape@@U?$less@I@std@@V?$allocator@U?$pair@$$CBIPAVDownloaderNetscape@@@std@@@3@$0A@@std@@@std@@QAE?AV?$_Tree_iterator@V?$_Tree_val@V?$_Tmap_traits@IPAVDownloaderNetscape@@U?$less@I@std@@V?$allocator@U?$pair@$$CBIPAVDownloaderNetscape@@@std@@@3@$0A@@std@@@std@@@2@V?$_Tree_const_iterator@V?$_Tree_val@V?$_Tmap_traits@IPAVDownloaderNetscape@@U?$less@I@std@@V?$allocator@U?$pair@$$CBIPAVDownloaderNetscape@@@std@@@3@$0A@@std@@@std@@@2@0@Z 10002ef3 f i DownloadManager.obj
 0001:00001f69       ?erase@?$_Tree@V?$_Tmap_traits@PAVDownload@@PAU_NPStream@@U?$less@PAVDownload@@@std@@V?$allocator@U?$pair@QAVDownload@@PAU_NPStream@@@std@@@4@$0A@@std@@@std@@QAE?AV?$_Tree_iterator@V?$_Tree_val@V?$_Tmap_traits@PAVDownload@@PAU_NPStream@@U?$less@PAVDownload@@@std@@V?$allocator@U?$pair@QAVDownload@@PAU_NPStream@@@std@@@4@$0A@@std@@@std@@@2@V?$_Tree_const_iterator@V?$_Tree_val@V?$_Tmap_traits@PAVDownload@@PAU_NPStream@@U?$less@PAVDownload@@@std@@V?$allocator@U?$pair@QAVDownload@@PAU_NPStream@@@std@@@4@$0A@@std@@@std@@@2@0@Z 10002f69 f i DownloadManager.obj
 0001:00001fdf       ??E?$_Tree_const_iterator@V?$_Tree_val@V?$_Tmap_traits@V?$basic_string@DU?$char_traits@D@std@@V?$allocator@D@2@@std@@V?$list@PAVDownloaderNetscape@@V?$allocator@PAVDownloaderNetscape@@@std@@@2@U?$less@V?$basic_string@DU?$char_traits@D@std@@V?$allocator@D@2@@std@@@2@V?$allocator@U?$pair@$$CBV?$basic_string@DU?$char_traits@D@std@@V?$allocator@D@2@@std@@V?$list@PAVDownloaderNetscape@@V?$allocator@PAVDownloaderNetscape@@@std@@@2@@std@@@2@$0A@@std@@@std@@@std@@QAEAAV01@XZ 10002fdf f i DownloadManager.obj
 0001:00002015       ?_Insert@?$list@PAVDownloaderNetscape@@V?$allocator@PAVDownloaderNetscape@@@std@@@std@@QAEXV?$_List_const_iterator@V?$_List_val@PAVDownloaderNetscape@@V?$allocator@PAVDownloaderNetscape@@@std@@@std@@@2@ABQAVDownloaderNetscape@@@Z 10003015 f i DownloadManager.obj
 0001:00002053       ?append@?$basic_string@DU?$char_traits@D@std@@V?$allocator@D@2@@std@@QAEAAV12@ABV12@II@Z 10003053 f i DownloadManager.obj
 0001:000020ed       ?append@?$basic_string@DU?$char_traits@D@std@@V?$allocator@D@2@@std@@QAEAAV12@PBDI@Z 100030ed f i DownloadManager.obj
 0001:00002186       ?assign@?$basic_string@DU?$char_traits@D@std@@V?$allocator@D@2@@std@@QAEAAV12@PBDI@Z 10003186 f i DownloadManager.obj
 0001:000021fb       ?erase@?$basic_string@DU?$char_traits@D@std@@V?$allocator@D@2@@std@@QAEAAV12@II@Z 100031fb f i DownloadManager.obj
 0001:00002273       ?_Grow@?$basic_string@DU?$char_traits@D@std@@V?$allocator@D@2@@std@@QAE_NI_N@Z 10003273 f i DownloadManager.obj
 0001:000022d7       ?_Buynode@?$_List_val@VCrossdomainPolicyEntry@@V?$allocator@VCrossdomainPolicyEntry@@@std@@@std@@QAEPAU_Node@?$_List_nod@VCrossdomainPolicyEntry@@V?$allocator@VCrossdomainPolicyEntry@@@std@@@2@PAU342@0ABVCrossdomainPolicyEntry@@@Z 100032d7 f i DownloadManager.obj
 0001:00002360       ?allocate@?$allocator@U_Node@?$_List_nod@VCrossdomainPolicyEntry@@V?$allocator@VCrossdomainPolicyEntry@@@std@@@std@@@std@@QAEPAU_Node@?$_List_nod@VCrossdomainPolicyEntry@@V?$allocator@VCrossdomainPolicyEntry@@@std@@@2@I@Z 10003360 f i DownloadManager.obj
 0001:00002360       ?allocate@?$allocator@U_Node@?$_Tree_nod@V?$_Tmap_traits@V?$basic_string@DU?$char_traits@D@std@@V?$allocator@D@2@@std@@V?$list@PAVDownloaderNetscape@@V?$allocator@PAVDownloaderNetscape@@@std@@@2@U?$less@V?$basic_string@DU?$char_traits@D@std@@V?$allocator@D@2@@std@@@2@V?$allocator@U?$pair@$$CBV?$basic_string@DU?$char_traits@D@std@@V?$allocator@D@2@@std@@V?$list@PAVDownloaderNetscape@@V?$allocator@PAVDownloaderNetscape@@@std@@@2@@std@@@2@$0A@@std@@@std@@@std@@QAEPAU_Node@?$_Tree_nod@V?$_Tmap_traits@V?$basic_string@DU?$char_traits@D@std@@V?$allocator@D@2@@std@@V?$list@PAVDownloaderNetscape@@V?$allocator@PAVDownloaderNetscape@@@std@@@2@U?$less@V?$basic_string@DU?$char_traits@D@std@@V?$allocator@D@2@@std@@@2@V?$allocator@U?$pair@$$CBV?$basic_string@DU?$char_traits@D@std@@V?$allocator@D@2@@std@@V?$list@PAVDownloaderNetscape@@V?$allocator@PAVDownloaderNetscape@@@std@@@2@@std@@@2@$0A@@std@@@2@I@Z 10003360 f i DownloadManager.obj
 0001:00002398       ?erase@?$_Tree@V?$_Tmap_traits@IPAVDownloaderNetscape@@U?$less@I@std@@V?$allocator@U?$pair@$$CBIPAVDownloaderNetscape@@@std@@@3@$0A@@std@@@std@@QAE?AV?$_Tree_iterator@V?$_Tree_val@V?$_Tmap_traits@IPAVDownloaderNetscape@@U?$less@I@std@@V?$allocator@U?$pair@$$CBIPAVDownloaderNetscape@@@std@@@3@$0A@@std@@@std@@@2@V?$_Tree_const_iterator@V?$_Tree_val@V?$_Tmap_traits@IPAVDownloaderNetscape@@U?$less@I@std@@V?$allocator@U?$pair@$$CBIPAVDownloaderNetscape@@@std@@@3@$0A@@std@@@std@@@2@@Z 10003398 f i DownloadManager.obj
 0001:000025d6       ?erase@?$_Tree@V?$_Tmap_traits@PAVDownload@@PAU_NPStream@@U?$less@PAVDownload@@@std@@V?$allocator@U?$pair@QAVDownload@@PAU_NPStream@@@std@@@4@$0A@@std@@@std@@QAE?AV?$_Tree_iterator@V?$_Tree_val@V?$_Tmap_traits@PAVDownload@@PAU_NPStream@@U?$less@PAVDownload@@@std@@V?$allocator@U?$pair@QAVDownload@@PAU_NPStream@@@std@@@4@$0A@@std@@@std@@@2@V?$_Tree_const_iterator@V?$_Tree_val@V?$_Tmap_traits@PAVDownload@@PAU_NPStream@@U?$less@PAVDownload@@@std@@V?$allocator@U?$pair@QAVDownload@@PAU_NPStream@@@std@@@4@$0A@@std@@@std@@@2@@Z 100035d6 f i DownloadManager.obj
 0001:00002814       ??E?$_Tree_const_iterator@V?$_Tree_val@V?$_Tmap_traits@V?$basic_string@DU?$char_traits@D@std@@V?$allocator@D@2@@std@@PAVCrossdomainPolicy@@U?$less@V?$basic_string@DU?$char_traits@D@std@@V?$allocator@D@2@@std@@@2@V?$allocator@U?$pair@$$CBV?$basic_string@DU?$char_traits@D@std@@V?$allocator@D@2@@std@@PAVCrossdomainPolicy@@@std@@@2@$0A@@std@@@std@@@std@@QAEAAV01@XZ 10003814 f i DownloadManager.obj
 0001:0000284a       ?_Incsize@?$list@PAVDownloaderNetscape@@V?$allocator@PAVDownloaderNetscape@@@std@@@std@@QAEXI@Z 1000384a f i DownloadManager.obj
 0001:0000286a       ?_Buynode@?$_List_val@PAVDownloaderNetscape@@V?$allocator@PAVDownloaderNetscape@@@std@@@std@@QAEPAU_Node@?$_List_nod@PAVDownloaderNetscape@@V?$allocator@PAVDownloaderNetscape@@@std@@@2@PAU342@0ABQAVDownloaderNetscape@@@Z 1000386a f i DownloadManager.obj
 0001:000028c9       ?_Copy@?$basic_string@DU?$char_traits@D@std@@V?$allocator@D@2@@std@@QAEXII@Z 100038c9 f i DownloadManager.obj
 0001:000029c7       ?_Inside@?$basic_string@DU?$char_traits@D@std@@V?$allocator@D@2@@std@@QAE_NPBD@Z 100039c7 f i DownloadManager.obj
 0001:00002a02       ?allocate@?$allocator@U_Node@?$_Tree_nod@V?$_Tmap_traits@V?$basic_string@DU?$char_traits@D@std@@V?$allocator@D@2@@std@@PAVCrossdomainPolicy@@U?$less@V?$basic_string@DU?$char_traits@D@std@@V?$allocator@D@2@@std@@@2@V?$allocator@U?$pair@$$CBV?$basic_string@DU?$char_traits@D@std@@V?$allocator@D@2@@std@@PAVCrossdomainPolicy@@@std@@@2@$0A@@std@@@std@@@std@@QAEPAU_Node@?$_Tree_nod@V?$_Tmap_traits@V?$basic_string@DU?$char_traits@D@std@@V?$allocator@D@2@@std@@PAVCrossdomainPolicy@@U?$less@V?$basic_string@DU?$char_traits@D@std@@V?$allocator@D@2@@std@@@2@V?$allocator@U?$pair@$$CBV?$basic_string@DU?$char_traits@D@std@@V?$allocator@D@2@@std@@PAVCrossdomainPolicy@@@std@@@2@$0A@@std@@@2@I@Z 10003a02 f i DownloadManager.obj
 0001:00002a3a       ?_Erase@?$_Tree@V?$_Tmap_traits@IPAVDownloaderNetscape@@U?$less@I@std@@V?$allocator@U?$pair@$$CBIPAVDownloaderNetscape@@@std@@@3@$0A@@std@@@std@@IAEXPAU_Node@?$_Tree_nod@V?$_Tmap_traits@IPAVDownloaderNetscape@@U?$less@I@std@@V?$allocator@U?$pair@$$CBIPAVDownloaderNetscape@@@std@@@3@$0A@@std@@@2@@Z 10003a3a f i DownloadManager.obj
 0001:00002a3a       ?_Erase@?$_Tree@V?$_Tmap_traits@KPAVTimer@?A0xcd4663a9@@U?$less@K@std@@V?$allocator@U?$pair@$$CBKPAVTimer@?A0xcd4663a9@@@std@@@4@$0A@@std@@@std@@IAEXPAU_Node@?$_Tree_nod@V?$_Tmap_traits@KPAVTimer@?A0xcd4663a9@@U?$less@K@std@@V?$allocator@U?$pair@$$CBKPAVTimer@?A0xcd4663a9@@@std@@@4@$0A@@std@@@2@@Z 10003a3a f i WebCommonLib:PluginManager.obj
 0001:00002a3a       ?_Erase@?$_Tree@V?$_Tmap_traits@IW4UpdateStatus@UpdaterProxy@@U?$less@I@std@@V?$allocator@U?$pair@$$CBIW4UpdateStatus@UpdaterProxy@@@std@@@4@$0A@@std@@@std@@IAEXPAU_Node@?$_Tree_nod@V?$_Tmap_traits@IW4UpdateStatus@UpdaterProxy@@U?$less@I@std@@V?$allocator@U?$pair@$$CBIW4UpdateStatus@UpdaterProxy@@@std@@@4@$0A@@std@@@2@@Z 10003a3a f i WebCommonLib:PluginManager.obj
 0001:00002a3a       ?_Erase@?$_Tree@V?$_Tmap_traits@PAVDownload@@PAU_NPStream@@U?$less@PAVDownload@@@std@@V?$allocator@U?$pair@QAVDownload@@PAU_NPStream@@@std@@@4@$0A@@std@@@std@@IAEXPAU_Node@?$_Tree_nod@V?$_Tmap_traits@PAVDownload@@PAU_NPStream@@U?$less@PAVDownload@@@std@@V?$allocator@U?$pair@QAVDownload@@PAU_NPStream@@@std@@@4@$0A@@std@@@2@@Z 10003a3a f i DownloadManager.obj
 0001:00002a6f       ?_Lrotate@?$_Tree@V?$_Tmap_traits@IPAVDownloaderNetscape@@U?$less@I@std@@V?$allocator@U?$pair@$$CBIPAVDownloaderNetscape@@@std@@@3@$0A@@std@@@std@@IAEXPAU_Node@?$_Tree_nod@V?$_Tmap_traits@IPAVDownloaderNetscape@@U?$less@I@std@@V?$allocator@U?$pair@$$CBIPAVDownloaderNetscape@@@std@@@3@$0A@@std@@@2@@Z 10003a6f f i DownloadManager.obj
 0001:00002aac       ?_Rrotate@?$_Tree@V?$_Tmap_traits@IPAVDownloaderNetscape@@U?$less@I@std@@V?$allocator@U?$pair@$$CBIPAVDownloaderNetscape@@@std@@@3@$0A@@std@@@std@@IAEXPAU_Node@?$_Tree_nod@V?$_Tmap_traits@IPAVDownloaderNetscape@@U?$less@I@std@@V?$allocator@U?$pair@$$CBIPAVDownloaderNetscape@@@std@@@3@$0A@@std@@@2@@Z 10003aac f i DownloadManager.obj
 0001:00002aeb       ?_Lrotate@?$_Tree@V?$_Tmap_traits@PAVDownload@@PAU_NPStream@@U?$less@PAVDownload@@@std@@V?$allocator@U?$pair@QAVDownload@@PAU_NPStream@@@std@@@4@$0A@@std@@@std@@IAEXPAU_Node@?$_Tree_nod@V?$_Tmap_traits@PAVDownload@@PAU_NPStream@@U?$less@PAVDownload@@@std@@V?$allocator@U?$pair@QAVDownload@@PAU_NPStream@@@std@@@4@$0A@@std@@@2@@Z 10003aeb f i DownloadManager.obj
 0001:00002b28       ?_Rrotate@?$_Tree@V?$_Tmap_traits@PAVDownload@@PAU_NPStream@@U?$less@PAVDownload@@@std@@V?$allocator@U?$pair@QAVDownload@@PAU_NPStream@@@std@@@4@$0A@@std@@@std@@IAEXPAU_Node@?$_Tree_nod@V?$_Tmap_traits@PAVDownload@@PAU_NPStream@@U?$less@PAVDownload@@@std@@V?$allocator@U?$pair@QAVDownload@@PAU_NPStream@@@std@@@4@$0A@@std@@@2@@Z 10003b28 f i DownloadManager.obj
 0001:00002b67       ?allocate@?$allocator@U_Node@?$_Tree_nod@V?$_Tmap_traits@IW4UpdateStatus@UpdaterProxy@@U?$less@I@std@@V?$allocator@U?$pair@$$CBIW4UpdateStatus@UpdaterProxy@@@std@@@4@$0A@@std@@@std@@@std@@QAEPAU_Node@?$_Tree_nod@V?$_Tmap_traits@IW4UpdateStatus@UpdaterProxy@@U?$less@I@std@@V?$allocator@U?$pair@$$CBIW4UpdateStatus@UpdaterProxy@@@std@@@4@$0A@@std@@@2@I@Z 10003b67 f i WebCommonLib:UpdaterProxy.obj
 0001:00002b67       ?allocate@?$allocator@U_Node@?$_Tree_nod@V?$_Tmap_traits@PAVDownload@@PAU_NPStream@@U?$less@PAVDownload@@@std@@V?$allocator@U?$pair@QAVDownload@@PAU_NPStream@@@std@@@4@$0A@@std@@@std@@@std@@QAEPAU_Node@?$_Tree_nod@V?$_Tmap_traits@PAVDownload@@PAU_NPStream@@U?$less@PAVDownload@@@std@@V?$allocator@U?$pair@QAVDownload@@PAU_NPStream@@@std@@@4@$0A@@std@@@2@I@Z 10003b67 f i DownloadManager.obj
 0001:00002b67       ?allocate@?$allocator@U_Node@?$_Tree_nod@V?$_Tmap_traits@IPAVDownloaderNetscape@@U?$less@I@std@@V?$allocator@U?$pair@$$CBIPAVDownloaderNetscape@@@std@@@3@$0A@@std@@@std@@@std@@QAEPAU_Node@?$_Tree_nod@V?$_Tmap_traits@IPAVDownloaderNetscape@@U?$less@I@std@@V?$allocator@U?$pair@$$CBIPAVDownloaderNetscape@@@std@@@3@$0A@@std@@@2@I@Z 10003b67 f i DownloadManager.obj
 0001:00002b67       ?allocate@?$allocator@U_Node@?$_Tree_nod@V?$_Tmap_traits@KPAVTimer@?A0xcd4663a9@@U?$less@K@std@@V?$allocator@U?$pair@$$CBKPAVTimer@?A0xcd4663a9@@@std@@@4@$0A@@std@@@std@@@std@@QAEPAU_Node@?$_Tree_nod@V?$_Tmap_traits@KPAVTimer@?A0xcd4663a9@@U?$less@K@std@@V?$allocator@U?$pair@$$CBKPAVTimer@?A0xcd4663a9@@@std@@@4@$0A@@std@@@2@I@Z 10003b67 f i WebCommonLib:PluginManager.obj
 0001:00002b9f       ??E?$_Tree_const_iterator@V?$_Tree_val@V?$_Tmap_traits@PAVDownload@@PAU_NPStream@@U?$less@PAVDownload@@@std@@V?$allocator@U?$pair@QAVDownload@@PAU_NPStream@@@std@@@4@$0A@@std@@@std@@@std@@QAEAAV01@XZ 10003b9f f i DownloadManager.obj
 0001:00002b9f       ??E?$_Tree_const_iterator@V?$_Tree_val@V?$_Tmap_traits@IW4UpdateStatus@UpdaterProxy@@U?$less@I@std@@V?$allocator@U?$pair@$$CBIW4UpdateStatus@UpdaterProxy@@@std@@@4@$0A@@std@@@std@@@std@@QAEAAV01@XZ 10003b9f f i WebCommonLib:PluginManager.obj
 0001:00002b9f       ??E?$_Tree_unchecked_const_iterator@V?$_Tree_val@V?$_Tmap_traits@KPAVTimer@?A0xcd4663a9@@U?$less@K@std@@V?$allocator@U?$pair@$$CBKPAVTimer@?A0xcd4663a9@@@std@@@4@$0A@@std@@@std@@U_Iterator_base0@2@@std@@QAEAAV01@XZ 10003b9f f i WebCommonLib:PluginManager.obj
 0001:00002b9f       ??E?$_Tree_const_iterator@V?$_Tree_val@V?$_Tmap_traits@IPAVDownloaderNetscape@@U?$less@I@std@@V?$allocator@U?$pair@$$CBIPAVDownloaderNetscape@@@std@@@3@$0A@@std@@@std@@@std@@QAEAAV01@XZ 10003b9f f i DownloadManager.obj
 0001:00002bd5       ?_Lrotate@?$_Tree@V?$_Tmap_traits@V?$basic_string@DU?$char_traits@D@std@@V?$allocator@D@2@@std@@PAVCrossdomainPolicy@@U?$less@V?$basic_string@DU?$char_traits@D@std@@V?$allocator@D@2@@std@@@2@V?$allocator@U?$pair@$$CBV?$basic_string@DU?$char_traits@D@std@@V?$allocator@D@2@@std@@PAVCrossdomainPolicy@@@std@@@2@$0A@@std@@@std@@IAEXPAU_Node@?$_Tree_nod@V?$_Tmap_traits@V?$basic_string@DU?$char_traits@D@std@@V?$allocator@D@2@@std@@PAVCrossdomainPolicy@@U?$less@V?$basic_string@DU?$char_traits@D@std@@V?$allocator@D@2@@std@@@2@V?$allocator@U?$pair@$$CBV?$basic_string@DU?$char_traits@D@std@@V?$allocator@D@2@@std@@PAVCrossdomainPolicy@@@std@@@2@$0A@@std@@@2@@Z 10003bd5 f i DownloadManager.obj
 0001:00002c18       ?_Rrotate@?$_Tree@V?$_Tmap_traits@V?$basic_string@DU?$char_traits@D@std@@V?$allocator@D@2@@std@@PAVCrossdomainPolicy@@U?$less@V?$basic_string@DU?$char_traits@D@std@@V?$allocator@D@2@@std@@@2@V?$allocator@U?$pair@$$CBV?$basic_string@DU?$char_traits@D@std@@V?$allocator@D@2@@std@@PAVCrossdomainPolicy@@@std@@@2@$0A@@std@@@std@@IAEXPAU_Node@?$_Tree_nod@V?$_Tmap_traits@V?$basic_string@DU?$char_traits@D@std@@V?$allocator@D@2@@std@@PAVCrossdomainPolicy@@U?$less@V?$basic_string@DU?$char_traits@D@std@@V?$allocator@D@2@@std@@@2@V?$allocator@U?$pair@$$CBV?$basic_string@DU?$char_traits@D@std@@V?$allocator@D@2@@std@@PAVCrossdomainPolicy@@@std@@@2@$0A@@std@@@2@@Z 10003c18 f i DownloadManager.obj
 0001:00002c5d       ??$_Allocate@D@std@@YAPADIPAD@Z 10003c5d f i DownloadManager.obj
 0001:00002ca4       ??0bad_alloc@std@@QAE@ABV01@@Z 10003ca4 f i DownloadManager.obj
 0001:00002cbf       ?_Linsert@?$_Tree@V?$_Tmap_traits@V?$basic_string@DU?$char_traits@D@std@@V?$allocator@D@2@@std@@V?$list@PAVDownloaderNetscape@@V?$allocator@PAVDownloaderNetscape@@@std@@@2@U?$less@V?$basic_string@DU?$char_traits@D@std@@V?$allocator@D@2@@std@@@2@V?$allocator@U?$pair@$$CBV?$basic_string@DU?$char_traits@D@std@@V?$allocator@D@2@@std@@V?$list@PAVDownloaderNetscape@@V?$allocator@PAVDownloaderNetscape@@@std@@@2@@std@@@2@$0A@@std@@@std@@QAE?AU?$pair@V?$_Tree_iterator@V?$_Tree_val@V?$_Tmap_traits@V?$basic_string@DU?$char_traits@D@std@@V?$allocator@D@2@@std@@V?$list@PAVDownloaderNetscape@@V?$allocator@PAVDownloaderNetscape@@@std@@@2@U?$less@V?$basic_string@DU?$char_traits@D@std@@V?$allocator@D@2@@std@@@2@V?$allocator@U?$pair@$$CBV?$basic_string@DU?$char_traits@D@std@@V?$allocator@D@2@@std@@V?$list@PAVDownloaderNetscape@@V?$allocator@PAVDownloaderNetscape@@@std@@@2@@std@@@2@$0A@@std@@@std@@@std@@_N@2@PAU_Node@?$_Tree_nod@V?$_Tmap_traits@V?$basic_string@DU?$char_traits@D@std@@V?$allocator@D@2@@std@@V?$list@PAVDownloaderNetscape@@V?$allocator@PAVDownloaderNetscape@@@std@@@2@U?$less@V?$basic_string@DU?$char_traits@D@std@@V?$allocator@D@2@@std@@@2@V?$allocator@U?$pair@$$CBV?$basic_string@DU?$char_traits@D@std@@V?$allocator@D@2@@std@@V?$list@PAVDownloaderNetscape@@V?$allocator@PAVDownloaderNetscape@@@std@@@2@@std@@@2@$0A@@std@@@2@_N@Z 10003cbf f i DownloadManager.obj
 0001:00002da8       ?_Linsert@?$_Tree@V?$_Tmap_traits@V?$basic_string@DU?$char_traits@D@std@@V?$allocator@D@2@@std@@PAVCrossdomainPolicy@@U?$less@V?$basic_string@DU?$char_traits@D@std@@V?$allocator@D@2@@std@@@2@V?$allocator@U?$pair@$$CBV?$basic_string@DU?$char_traits@D@std@@V?$allocator@D@2@@std@@PAVCrossdomainPolicy@@@std@@@2@$0A@@std@@@std@@QAE?AU?$pair@V?$_Tree_iterator@V?$_Tree_val@V?$_Tmap_traits@V?$basic_string@DU?$char_traits@D@std@@V?$allocator@D@2@@std@@PAVCrossdomainPolicy@@U?$less@V?$basic_string@DU?$char_traits@D@std@@V?$allocator@D@2@@std@@@2@V?$allocator@U?$pair@$$CBV?$basic_string@DU?$char_traits@D@std@@V?$allocator@D@2@@std@@PAVCrossdomainPolicy@@@std@@@2@$0A@@std@@@std@@@std@@_N@2@PAU_Node@?$_Tree_nod@V?$_Tmap_traits@V?$basic_string@DU?$char_traits@D@std@@V?$allocator@D@2@@std@@PAVCrossdomainPolicy@@U?$less@V?$basic_string@DU?$char_traits@D@std@@V?$allocator@D@2@@std@@@2@V?$allocator@U?$pair@$$CBV?$basic_string@DU?$char_traits@D@std@@V?$allocator@D@2@@std@@PAVCrossdomainPolicy@@@std@@@2@$0A@@std@@@2@_N@Z 10003da8 f i DownloadManager.obj
 0001:00002e8d       ?_Linsert@?$_Tree@V?$_Tmap_traits@IPAVDownloaderNetscape@@U?$less@I@std@@V?$allocator@U?$pair@$$CBIPAVDownloaderNetscape@@@std@@@3@$0A@@std@@@std@@QAE?AU?$pair@V?$_Tree_iterator@V?$_Tree_val@V?$_Tmap_traits@IPAVDownloaderNetscape@@U?$less@I@std@@V?$allocator@U?$pair@$$CBIPAVDownloaderNetscape@@@std@@@3@$0A@@std@@@std@@@std@@_N@2@PAU_Node@?$_Tree_nod@V?$_Tmap_traits@IPAVDownloaderNetscape@@U?$less@I@std@@V?$allocator@U?$pair@$$CBIPAVDownloaderNetscape@@@std@@@3@$0A@@std@@@2@_N@Z 10003e8d f i DownloadManager.obj
 0001:00002f50       ?_Linsert@?$_Tree@V?$_Tmap_traits@PAVDownload@@PAU_NPStream@@U?$less@PAVDownload@@@std@@V?$allocator@U?$pair@QAVDownload@@PAU_NPStream@@@std@@@4@$0A@@std@@@std@@QAE?AU?$pair@V?$_Tree_iterator@V?$_Tree_val@V?$_Tmap_traits@PAVDownload@@PAU_NPStream@@U?$less@PAVDownload@@@std@@V?$allocator@U?$pair@QAVDownload@@PAU_NPStream@@@std@@@4@$0A@@std@@@std@@@std@@_N@2@PAU_Node@?$_Tree_nod@V?$_Tmap_traits@PAVDownload@@PAU_NPStream@@U?$less@PAVDownload@@@std@@V?$allocator@U?$pair@QAVDownload@@PAU_NPStream@@@std@@@4@$0A@@std@@@2@_N@Z 10003f50 f i DownloadManager.obj
 0001:00003013       ?_Insert@?$_Tree@V?$_Tmap_traits@V?$basic_string@DU?$char_traits@D@std@@V?$allocator@D@2@@std@@V?$list@PAVDownloaderNetscape@@V?$allocator@PAVDownloaderNetscape@@@std@@@2@U?$less@V?$basic_string@DU?$char_traits@D@std@@V?$allocator@D@2@@std@@@2@V?$allocator@U?$pair@$$CBV?$basic_string@DU?$char_traits@D@std@@V?$allocator@D@2@@std@@V?$list@PAVDownloaderNetscape@@V?$allocator@PAVDownloaderNetscape@@@std@@@2@@std@@@2@$0A@@std@@@std@@IAE?AV?$_Tree_iterator@V?$_Tree_val@V?$_Tmap_traits@V?$basic_string@DU?$char_traits@D@std@@V?$allocator@D@2@@std@@V?$list@PAVDownloaderNetscape@@V?$allocator@PAVDownloaderNetscape@@@std@@@2@U?$less@V?$basic_string@DU?$char_traits@D@std@@V?$allocator@D@2@@std@@@2@V?$allocator@U?$pair@$$CBV?$basic_string@DU?$char_traits@D@std@@V?$allocator@D@2@@std@@V?$list@PAVDownloaderNetscape@@V?$allocator@PAVDownloaderNetscape@@@std@@@2@@std@@@2@$0A@@std@@@std@@@2@_NPAU_Node@?$_Tree_nod@V?$_Tmap_traits@V?$basic_string@DU?$char_traits@D@std@@V?$allocator@D@2@@std@@V?$list@PAVDownloaderNetscape@@V?$allocator@PAVDownloaderNetscape@@@std@@@2@U?$less@V?$basic_string@DU?$char_traits@D@std@@V?$allocator@D@2@@std@@@2@V?$allocator@U?$pair@$$CBV?$basic_string@DU?$char_traits@D@std@@V?$allocator@D@2@@std@@V?$list@PAVDownloaderNetscape@@V?$allocator@PAVDownloaderNetscape@@@std@@@2@@std@@@2@$0A@@std@@@2@1@Z 10004013 f i DownloadManager.obj
 0001:00003138       ?_Insert@?$_Tree@V?$_Tmap_traits@V?$basic_string@DU?$char_traits@D@std@@V?$allocator@D@2@@std@@PAVCrossdomainPolicy@@U?$less@V?$basic_string@DU?$char_traits@D@std@@V?$allocator@D@2@@std@@@2@V?$allocator@U?$pair@$$CBV?$basic_string@DU?$char_traits@D@std@@V?$allocator@D@2@@std@@PAVCrossdomainPolicy@@@std@@@2@$0A@@std@@@std@@IAE?AV?$_Tree_iterator@V?$_Tree_val@V?$_Tmap_traits@V?$basic_string@DU?$char_traits@D@std@@V?$allocator@D@2@@std@@PAVCrossdomainPolicy@@U?$less@V?$basic_string@DU?$char_traits@D@std@@V?$allocator@D@2@@std@@@2@V?$allocator@U?$pair@$$CBV?$basic_string@DU?$char_traits@D@std@@V?$allocator@D@2@@std@@PAVCrossdomainPolicy@@@std@@@2@$0A@@std@@@std@@@2@_NPAU_Node@?$_Tree_nod@V?$_Tmap_traits@V?$basic_string@DU?$char_traits@D@std@@V?$allocator@D@2@@std@@PAVCrossdomainPolicy@@U?$less@V?$basic_string@DU?$char_traits@D@std@@V?$allocator@D@2@@std@@@2@V?$allocator@U?$pair@$$CBV?$basic_string@DU?$char_traits@D@std@@V?$allocator@D@2@@std@@PAVCrossdomainPolicy@@@std@@@2@$0A@@std@@@2@1@Z 10004138 f i DownloadManager.obj
 0001:0000325d       ?_Insert@?$_Tree@V?$_Tmap_traits@IPAVDownloaderNetscape@@U?$less@I@std@@V?$allocator@U?$pair@$$CBIPAVDownloaderNetscape@@@std@@@3@$0A@@std@@@std@@IAE?AV?$_Tree_iterator@V?$_Tree_val@V?$_Tmap_traits@IPAVDownloaderNetscape@@U?$less@I@std@@V?$allocator@U?$pair@$$CBIPAVDownloaderNetscape@@@std@@@3@$0A@@std@@@std@@@2@_NPAU_Node@?$_Tree_nod@V?$_Tmap_traits@IPAVDownloaderNetscape@@U?$less@I@std@@V?$allocator@U?$pair@$$CBIPAVDownloaderNetscape@@@std@@@3@$0A@@std@@@2@1@Z 1000425d f i DownloadManager.obj
 0001:00003381       ?_Insert@?$_Tree@V?$_Tmap_traits@PAVDownload@@PAU_NPStream@@U?$less@PAVDownload@@@std@@V?$allocator@U?$pair@QAVDownload@@PAU_NPStream@@@std@@@4@$0A@@std@@@std@@IAE?AV?$_Tree_iterator@V?$_Tree_val@V?$_Tmap_traits@PAVDownload@@PAU_NPStream@@U?$less@PAVDownload@@@std@@V?$allocator@U?$pair@QAVDownload@@PAU_NPStream@@@std@@@4@$0A@@std@@@std@@@2@_NPAU_Node@?$_Tree_nod@V?$_Tmap_traits@PAVDownload@@PAU_NPStream@@U?$less@PAVDownload@@@std@@V?$allocator@U?$pair@QAVDownload@@PAU_NPStream@@@std@@@4@$0A@@std@@@2@1@Z 10004381 f i DownloadManager.obj
 0001:000034a5       ??$_Buynode@U?$pair@IPAVDownloaderNetscape@@@std@@@?$_Tree_val@V?$_Tmap_traits@IPAVDownloaderNetscape@@U?$less@I@std@@V?$allocator@U?$pair@$$CBIPAVDownloaderNetscape@@@std@@@3@$0A@@std@@@std@@QAEPAU_Node@?$_Tree_nod@V?$_Tmap_traits@IPAVDownloaderNetscape@@U?$less@I@std@@V?$allocator@U?$pair@$$CBIPAVDownloaderNetscape@@@std@@@3@$0A@@std@@@1@$$QAU?$pair@IPAVDownloaderNetscape@@@1@@Z 100044a5 f i DownloadManager.obj
 0001:0000351b       ??$_Buynode@U?$pair@PAVDownloaderNetscape@@PAU_NPStream@@@std@@@?$_Tree_val@V?$_Tmap_traits@PAVDownload@@PAU_NPStream@@U?$less@PAVDownload@@@std@@V?$allocator@U?$pair@QAVDownload@@PAU_NPStream@@@std@@@4@$0A@@std@@@std@@QAEPAU_Node@?$_Tree_nod@V?$_Tmap_traits@PAVDownload@@PAU_NPStream@@U?$less@PAVDownload@@@std@@V?$allocator@U?$pair@QAVDownload@@PAU_NPStream@@@std@@@4@$0A@@std@@@1@$$QAU?$pair@PAVDownloaderNetscape@@PAU_NPStream@@@1@@Z 1000451b f i DownloadManager.obj
 0001:00003591       ??$_Buynode@U?$pair@$$CBV?$basic_string@DU?$char_traits@D@std@@V?$allocator@D@2@@std@@V?$list@PAVDownloaderNetscape@@V?$allocator@PAVDownloaderNetscape@@@std@@@2@@std@@@?$_Tree_val@V?$_Tmap_traits@V?$basic_string@DU?$char_traits@D@std@@V?$allocator@D@2@@std@@V?$list@PAVDownloaderNetscape@@V?$allocator@PAVDownloaderNetscape@@@std@@@2@U?$less@V?$basic_string@DU?$char_traits@D@std@@V?$allocator@D@2@@std@@@2@V?$allocator@U?$pair@$$CBV?$basic_string@DU?$char_traits@D@std@@V?$allocator@D@2@@std@@V?$list@PAVDownloaderNetscape@@V?$allocator@PAVDownloaderNetscape@@@std@@@2@@std@@@2@$0A@@std@@@std@@QAEPAU_Node@?$_Tree_nod@V?$_Tmap_traits@V?$basic_string@DU?$char_traits@D@std@@V?$allocator@D@2@@std@@V?$list@PAVDownloaderNetscape@@V?$allocator@PAVDownloaderNetscape@@@std@@@2@U?$less@V?$basic_string@DU?$char_traits@D@std@@V?$allocator@D@2@@std@@@2@V?$allocator@U?$pair@$$CBV?$basic_string@DU?$char_traits@D@std@@V?$allocator@D@2@@std@@V?$list@PAVDownloaderNetscape@@V?$allocator@PAVDownloaderNetscape@@@std@@@2@@std@@@2@$0A@@std@@@1@$$QAU?$pair@$$CBV?$basic_string@DU?$char_traits@D@std@@V?$allocator@D@2@@std@@V?$list@PAVDownloaderNetscape@@V?$allocator@PAVDownloaderNetscape@@@std@@@2@@1@@Z 10004591 f i DownloadManager.obj
 0001:00003603       ??$_Buynode@U?$pair@$$CBV?$basic_string@DU?$char_traits@D@std@@V?$allocator@D@2@@std@@PAVCrossdomainPolicy@@@std@@@?$_Tree_val@V?$_Tmap_traits@V?$basic_string@DU?$char_traits@D@std@@V?$allocator@D@2@@std@@PAVCrossdomainPolicy@@U?$less@V?$basic_string@DU?$char_traits@D@std@@V?$allocator@D@2@@std@@@2@V?$allocator@U?$pair@$$CBV?$basic_string@DU?$char_traits@D@std@@V?$allocator@D@2@@std@@PAVCrossdomainPolicy@@@std@@@2@$0A@@std@@@std@@QAEPAU_Node@?$_Tree_nod@V?$_Tmap_traits@V?$basic_string@DU?$char_traits@D@std@@V?$allocator@D@2@@std@@PAVCrossdomainPolicy@@U?$less@V?$basic_string@DU?$char_traits@D@std@@V?$allocator@D@2@@std@@@2@V?$allocator@U?$pair@$$CBV?$basic_string@DU?$char_traits@D@std@@V?$allocator@D@2@@std@@PAVCrossdomainPolicy@@@std@@@2@$0A@@std@@@1@$$QAU?$pair@$$CBV?$basic_string@DU?$char_traits@D@std@@V?$allocator@D@2@@std@@PAVCrossdomainPolicy@@@1@@Z 10004603 f i DownloadManager.obj
 0001:0000367a       ??$_Insert@V?$_List_const_iterator@V?$_List_val@VPortRange@@V?$allocator@VPortRange@@@std@@@std@@@std@@@?$list@VPortRange@@V?$allocator@VPortRange@@@std@@@std@@QAEXV?$_List_const_iterator@V?$_List_val@VPortRange@@V?$allocator@VPortRange@@@std@@@std@@@1@00Uforward_iterator_tag@1@@Z 1000467a f i DownloadManager.obj
 0001:00003731       ??$_Buynode@VPortRange@@@?$_List_val@VPortRange@@V?$allocator@VPortRange@@@std@@@std@@QAEPAU_Node@?$_List_nod@VPortRange@@V?$allocator@VPortRange@@@std@@@1@PAU231@0$$QAVPortRange@@@Z 10004731 f i DownloadManager.obj
 0001:00003731       ?_Buynode@?$_List_val@VPortRange@@V?$allocator@VPortRange@@@std@@@std@@QAEPAU_Node@?$_List_nod@VPortRange@@V?$allocator@VPortRange@@@std@@@2@PAU342@0ABVPortRange@@@Z 10004731 f i DownloadManager.obj
 0001:00003799       ??0?$list@PAVDownloaderNetscape@@V?$allocator@PAVDownloaderNetscape@@@std@@@std@@QAE@ABV01@@Z 10004799 f i DownloadManager.obj
 0001:00003803       ??$_Insert@V?$_List_const_iterator@V?$_List_val@PAVDownloaderNetscape@@V?$allocator@PAVDownloaderNetscape@@@std@@@std@@@std@@@?$list@PAVDownloaderNetscape@@V?$allocator@PAVDownloaderNetscape@@@std@@@std@@QAEXV?$_List_const_iterator@V?$_List_val@PAVDownloaderNetscape@@V?$allocator@PAVDownloaderNetscape@@@std@@@std@@@1@00Uforward_iterator_tag@1@@Z 10004803 f i DownloadManager.obj
 0001:00003879       ??$?0$$CBV?$basic_string@DU?$char_traits@D@std@@V?$allocator@D@2@@std@@V?$list@PAVDownloaderNetscape@@V?$allocator@PAVDownloaderNetscape@@@std@@@1@@?$pair@$$CBV?$basic_string@DU?$char_traits@D@std@@V?$allocator@D@2@@std@@V?$list@PAVDownloaderNetscape@@V?$allocator@PAVDownloaderNetscape@@@std@@@2@@std@@QAE@$$QAU01@@Z 10004879 f i DownloadManager.obj
 0001:000038d9       ?erase@?$list@PAVDownloaderNetscape@@V?$allocator@PAVDownloaderNetscape@@@std@@@std@@QAE?AV?$_List_iterator@V?$_List_val@PAVDownloaderNetscape@@V?$allocator@PAVDownloaderNetscape@@@std@@@std@@@2@V?$_List_const_iterator@V?$_List_val@PAVDownloaderNetscape@@V?$allocator@PAVDownloaderNetscape@@@std@@@std@@@2@@Z 100048d9 f i DownloadManager.obj
 0001:0000390c       ?_Splice_same@?$list@PAVDownloaderNetscape@@V?$allocator@PAVDownloaderNetscape@@@std@@@std@@QAEXV?$_List_const_iterator@V?$_List_val@PAVDownloaderNetscape@@V?$allocator@PAVDownloaderNetscape@@@std@@@std@@@2@AAV12@00I@Z 1000490c f i DownloadManager.obj
 0001:00003963       ??1ContextMenu@@QAE@XZ     10004963 f   ContextMenu.obj
 0001:000039a1       ?WindowProc@ContextMenu@@CGJPAUHWND__@@IIJ@Z 100049a1 f   ContextMenu.obj
 0001:00003c89       ??_GContextSubmenu@@QAEPAXI@Z 10004c89 f i ContextMenu.obj
 0001:00003cca       ??0ContextMenuWindowClass@@QAE@XZ 10004cca f   ContextMenuWindowClass.obj
 0001:00003d3c       ??0ContextSubmenu@@QAE@PBVContextMenu@@PAUHWND__@@@Z 10004d3c f   ContextSubmenu.obj
 0001:00003d7b       ??1ContextSubmenu@@QAE@XZ  10004d7b f   ContextSubmenu.obj
 0001:00003db7       ?ShowMenu@ContextSubmenu@@QBEXHH@Z 10004db7 f   ContextSubmenu.obj
 0001:00003de0       ?HideChildren@ContextSubmenu@@QAEXXZ 10004de0 f   ContextSubmenu.obj
 0001:00003e16       ?RedrawMenu@ContextSubmenu@@QBEXXZ 10004e16 f   ContextSubmenu.obj
 0001:00003e48       ?Initialize@ContextSubmenu@@QAEXPAUHMENU__@@@Z 10004e48 f   ContextSubmenu.obj
 0001:00004028       ?Update@ContextSubmenu@@AAEXXZ 10005028 f   ContextSubmenu.obj
 0001:000041f8       ?SelectAndRedraw@ContextSubmenu@@QAEXABUtagPOINT@@@Z 100051f8 f   ContextSubmenu.obj
 0001:00004268       ?OnPaint@ContextSubmenu@@ABEXPAUHDC__@@@Z 10005268 f   ContextSubmenu.obj
 0001:00004558       ??0?$basic_string@_WU?$char_traits@_W@std@@V?$allocator@_W@2@@std@@QAE@ABV01@@Z 10005558 f i ContextSubmenu.obj
 0001:00004580       ??1?$vector@UItem@ContextSubmenu@@V?$allocator@UItem@ContextSubmenu@@@std@@@std@@QAE@XZ 10005580 f i ContextSubmenu.obj
 0001:000045b5       ?reserve@?$vector@UItem@ContextSubmenu@@V?$allocator@UItem@ContextSubmenu@@@std@@@std@@QAEXI@Z 100055b5 f i ContextSubmenu.obj
 0001:00004688       ?assign@?$basic_string@_WU?$char_traits@_W@std@@V?$allocator@_W@2@@std@@QAEAAV12@ABV12@II@Z 10005688 f i ContextSubmenu.obj
 0001:00004723       ?_Tidy@?$basic_string@_WU?$char_traits@_W@std@@V?$allocator@_W@2@@std@@QAEX_NI@Z 10005723 f i ContextSubmenu.obj
 0001:0000476c       ?_Reserve@?$vector@UItem@ContextSubmenu@@V?$allocator@UItem@ContextSubmenu@@@std@@@std@@IAEXI@Z 1000576c f i ContextSubmenu.obj
 0001:000047c3       ?allocate@?$allocator@UItem@ContextSubmenu@@@std@@QAEPAUItem@ContextSubmenu@@I@Z 100057c3 f i ContextSubmenu.obj
 0001:0000480c       ?assign@?$basic_string@_WU?$char_traits@_W@std@@V?$allocator@_W@2@@std@@QAEAAV12@PB_WI@Z 1000580c f i ContextSubmenu.obj
 0001:0000488a       ?erase@?$basic_string@_WU?$char_traits@_W@std@@V?$allocator@_W@2@@std@@QAEAAV12@II@Z 1000588a f i ContextSubmenu.obj
 0001:00004909       ?_Grow@?$basic_string@_WU?$char_traits@_W@std@@V?$allocator@_W@2@@std@@QAE_NI_N@Z 10005909 f i ContextSubmenu.obj
 0001:00004972       ?_Copy@?$basic_string@_WU?$char_traits@_W@std@@V?$allocator@_W@2@@std@@QAEXII@Z 10005972 f i ContextSubmenu.obj
 0001:00004a7a       ?_Inside@?$basic_string@_WU?$char_traits@_W@std@@V?$allocator@_W@2@@std@@QAE_NPB_W@Z 10005a7a f i ContextSubmenu.obj
 0001:00004ab6       ??$for_each@V?$_Vector_iterator@V?$_Vector_val@UItem@ContextSubmenu@@V?$allocator@UItem@ContextSubmenu@@@std@@@std@@@std@@Udelete_child_submenus@@@std@@YA?AUdelete_child_submenus@@V?$_Vector_iterator@V?$_Vector_val@UItem@ContextSubmenu@@V?$allocator@UItem@ContextSubmenu@@@std@@@std@@@0@0U1@@Z 10005ab6 f i ContextSubmenu.obj
 0001:00004af9       ??$_Move@PAUItem@ContextSubmenu@@PAU12@@std@@YAPAUItem@ContextSubmenu@@PAU12@00@Z 10005af9 f i ContextSubmenu.obj
 0001:00004b60       ??$_Allocate@_W@std@@YAPA_WIPA_W@Z 10005b60 f i ContextSubmenu.obj
 0001:00004bac       ??0Item@ContextSubmenu@@QAE@ABU01@@Z 10005bac f i ContextSubmenu.obj
 0001:00004be5       ??$_Uninit_move@PAUItem@ContextSubmenu@@PAU12@V?$allocator@UItem@ContextSubmenu@@@std@@U12@@std@@YAPAUItem@ContextSubmenu@@PAU12@00AAV?$allocator@UItem@ContextSubmenu@@@0@0U_Nonscalar_ptr_iterator_tag@0@@Z 10005be5 f i ContextSubmenu.obj
 0001:00004c55       ?UT_Uninstall@@YGXPAUHWND__@@PB_W11@Z 10005c55 f   Uninstall.obj
 0001:00004c58       ?WriteReady@nsPluginInstanceBase@@UAEHPAU_NPStream@@@Z 10005c58 f i UnityWebPlayerPlugin.obj
 0001:00004c60       ?Print@nsPluginInstanceBase@@UAEXPAU_NPPrint@@@Z 10005c60 f i UnityWebPlayerPlugin.obj
 0001:00004c63       ?HandleEvent@nsPluginInstanceBase@@UAEGPAX@Z 10005c63 f i UnityWebPlayerPlugin.obj
 0001:00004c68       ?SetValue@nsPluginInstanceBase@@UAEFW4NPNVariable@@PAX@Z 10005c68 f i UnityWebPlayerPlugin.obj
 0001:00004c6d       ?GetMenuTitle@ShortChannelInfo@RevisionsQuery@@QBE?AV?$basic_string@DU?$char_traits@D@std@@V?$allocator@D@2@@std@@XZ 10005c6d f i UnityWebPlayerPlugin.obj
 0001:00004d17       _DllMain@12                10005d17 f   UnityWebPlayerPlugin.obj
 0001:00004d39       ?NS_PluginInitialize@@YAFXZ 10005d39 f   UnityWebPlayerPlugin.obj
 0001:00004df2       ?NS_PluginShutdown@@YAXXZ  10005df2 f   UnityWebPlayerPlugin.obj
 0001:00004e85       ?NS_NewPluginInstance@@YAPAVnsPluginInstanceBase@@PAUnsPluginCreateData@@@Z 10005e85 f   UnityWebPlayerPlugin.obj
 0001:00004ee3       ??0UnityWebPlayerPluginInstance@@QAE@PAUnsPluginCreateData@@@Z 10005ee3 f   UnityWebPlayerPlugin.obj
 0001:0000514b       ??1UnityWebPlayerPluginInstance@@QAE@XZ 1000614b f   UnityWebPlayerPlugin.obj
 0001:00005207       ?GetValue@UnityWebPlayerPluginInstance@@UAEFW4NPPVariable@@PAX@Z 10006207 f   UnityWebPlayerPlugin.obj
 0001:0000523c       ?InternalInitWindow@UnityWebPlayerPluginInstance@@AAEXPAUHWND__@@HH@Z 1000623c f   UnityWebPlayerPlugin.obj
 0001:000052d3       ?InternalCleanupWindow@UnityWebPlayerPluginInstance@@AAEXXZ 100062d3 f   UnityWebPlayerPlugin.obj
 0001:000052f0       ?init@UnityWebPlayerPluginInstance@@UAEEPAU_NPWindow@@@Z 100062f0 f   UnityWebPlayerPlugin.obj
 0001:00005347       ?shut@UnityWebPlayerPluginInstance@@UAEXXZ 10006347 f   UnityWebPlayerPlugin.obj
 0001:0000536f       ?isInitialized@UnityWebPlayerPluginInstance@@UAEEXZ 1000636f f   UnityWebPlayerPlugin.obj
 0001:00005376       ?SetWindow@UnityWebPlayerPluginInstance@@UAEFPAU_NPWindow@@@Z 10006376 f   UnityWebPlayerPlugin.obj
 0001:0000540c       ?PluginParentWindowProc@UnityWebPlayerPluginInstance@@CGJPAUHWND__@@IIJ@Z 1000640c f   UnityWebPlayerPlugin.obj
 0001:00005739       ?NewStream@UnityWebPlayerPluginInstance@@UAEFPADPAU_NPStream@@EPAG@Z 10006739 f   UnityWebPlayerPlugin.obj
 0001:00005787       ?Write@UnityWebPlayerPluginInstance@@UAEHPAU_NPStream@@HHPAX@Z 10006787 f   UnityWebPlayerPlugin.obj
 0001:000057ed       ?DestroyStream@UnityWebPlayerPluginInstance@@UAEFPAU_NPStream@@F@Z 100067ed f   UnityWebPlayerPlugin.obj
 0001:00005813       ?URLNotify@UnityWebPlayerPluginInstance@@UAEXPBDFPAX@Z 10006813 f   UnityWebPlayerPlugin.obj
 0001:00005857       ?URLRedirectNotify@UnityWebPlayerPluginInstance@@UAEXPBDHPAX@Z 10006857 f   UnityWebPlayerPlugin.obj
 0001:0000586b       ?Redraw@UnityWebPlayerPluginInstance@@AAEXXZ 1000686b f   UnityWebPlayerPlugin.obj
 0001:000058a4       ?PrepareDoubleBuffer@UnityWebPlayerPluginInstance@@AAEXPAUHDC__@@@Z 100068a4 f   UnityWebPlayerPlugin.obj
 0001:00005997       ?OnDestroy@UnityWebPlayerPluginInstance@@QAEXXZ 10006997 f   UnityWebPlayerPlugin.obj
 0001:00005a19       ?CheckError@UnityWebPlayerPluginInstance@@AAE_NXZ 10006a19 f   UnityWebPlayerPlugin.obj
 0001:00005a80       ?CheckRuntimeError@UnityWebPlayerPluginInstance@@AAE_NXZ 10006a80 f   UnityWebPlayerPlugin.obj
 0001:00005b20       ?Tick@UnityWebPlayerPluginInstance@@QAEXXZ 10006b20 f   UnityWebPlayerPlugin.obj
 0001:00005bc5       ?TickWrap@UnityWebPlayerPluginInstance@@AAEXXZ 10006bc5 f   UnityWebPlayerPlugin.obj
 0001:00005e83       ?OnDraw@UnityWebPlayerPluginInstance@@QAEXPAUHWND__@@PAUHDC__@@ABUtagRECT@@@Z 10006e83 f   UnityWebPlayerPlugin.obj
 0001:00006096       ?OnContextMenu@UnityWebPlayerPluginInstance@@QAEXHH@Z 10007096 f   UnityWebPlayerPlugin.obj
 0001:00006425       ??0?$basic_string@DU?$char_traits@D@std@@V?$allocator@D@2@@std@@QAE@PBDI@Z 10007425 f i UnityWebPlayerPlugin.obj
 0001:00006449       ??0?$basic_string@_WU?$char_traits@_W@std@@V?$allocator@_W@2@@std@@QAE@PB_W@Z 10007449 f i UnityWebPlayerPlugin.obj
 0001:0000647a       ??E?$_Tree_const_iterator@V?$_Tree_val@V?$_Tset_traits@UShortChannelInfo@RevisionsQuery@@U?$less@UShortChannelInfo@RevisionsQuery@@@std@@V?$allocator@UShortChannelInfo@RevisionsQuery@@@4@$0A@@std@@@std@@@std@@QAEAAV01@XZ 1000747a f i UnityWebPlayerPlugin.obj
 0001:000064b0       ??0?$_Tree@V?$_Tset_traits@UShortChannelInfo@RevisionsQuery@@U?$less@UShortChannelInfo@RevisionsQuery@@@std@@V?$allocator@UShortChannelInfo@RevisionsQuery@@@4@$0A@@std@@@std@@QAE@ABV01@@Z 100074b0 f i UnityWebPlayerPlugin.obj
 0001:0000655b       ?_Tidy@?$_Tree@V?$_Tset_traits@UShortChannelInfo@RevisionsQuery@@U?$less@UShortChannelInfo@RevisionsQuery@@@std@@V?$allocator@UShortChannelInfo@RevisionsQuery@@@4@$0A@@std@@@std@@IAEXXZ 1000755b f i UnityWebPlayerPlugin.obj
 0001:00006580       ??0?$_Tree_val@V?$_Tset_traits@UShortChannelInfo@RevisionsQuery@@U?$less@UShortChannelInfo@RevisionsQuery@@@std@@V?$allocator@UShortChannelInfo@RevisionsQuery@@@4@$0A@@std@@@std@@QAE@ABU?$less@UShortChannelInfo@RevisionsQuery@@@1@V?$allocator@UShortChannelInfo@RevisionsQuery@@@1@@Z 10007580 f i UnityWebPlayerPlugin.obj
 0001:000065ad       ?_Copy@?$_Tree@V?$_Tset_traits@UShortChannelInfo@RevisionsQuery@@U?$less@UShortChannelInfo@RevisionsQuery@@@std@@V?$allocator@UShortChannelInfo@RevisionsQuery@@@4@$0A@@std@@@std@@IAEPAU_Node@?$_Tree_nod@V?$_Tset_traits@UShortChannelInfo@RevisionsQuery@@U?$less@UShortChannelInfo@RevisionsQuery@@@std@@V?$allocator@UShortChannelInfo@RevisionsQuery@@@4@$0A@@std@@@2@PAU342@0@Z 100075ad f i UnityWebPlayerPlugin.obj
 0001:00006642       ?allocate@?$allocator@U_Node@?$_Tree_nod@V?$_Tset_traits@UShortChannelInfo@RevisionsQuery@@U?$less@UShortChannelInfo@RevisionsQuery@@@std@@V?$allocator@UShortChannelInfo@RevisionsQuery@@@4@$0A@@std@@@std@@@std@@QAEPAU_Node@?$_Tree_nod@V?$_Tset_traits@UShortChannelInfo@RevisionsQuery@@U?$less@UShortChannelInfo@RevisionsQuery@@@std@@V?$allocator@UShortChannelInfo@RevisionsQuery@@@4@$0A@@std@@@2@I@Z 10007642 f i UnityWebPlayerPlugin.obj
 0001:0000667a       ?_Erase@?$_Tree@V?$_Tset_traits@UShortChannelInfo@RevisionsQuery@@U?$less@UShortChannelInfo@RevisionsQuery@@@std@@V?$allocator@UShortChannelInfo@RevisionsQuery@@@4@$0A@@std@@@std@@IAEXPAU_Node@?$_Tree_nod@V?$_Tset_traits@UShortChannelInfo@RevisionsQuery@@U?$less@UShortChannelInfo@RevisionsQuery@@@std@@V?$allocator@UShortChannelInfo@RevisionsQuery@@@4@$0A@@std@@@2@@Z 1000767a f i UnityWebPlayerPlugin.obj
 0001:000066ba       ?_Lrotate@?$_Tree@V?$_Tset_traits@UShortChannelInfo@RevisionsQuery@@U?$less@UShortChannelInfo@RevisionsQuery@@@std@@V?$allocator@UShortChannelInfo@RevisionsQuery@@@4@$0A@@std@@@std@@IAEXPAU_Node@?$_Tree_nod@V?$_Tset_traits@UShortChannelInfo@RevisionsQuery@@U?$less@UShortChannelInfo@RevisionsQuery@@@std@@V?$allocator@UShortChannelInfo@RevisionsQuery@@@4@$0A@@std@@@2@@Z 100076ba f i UnityWebPlayerPlugin.obj
 0001:000066fd       ?_Rrotate@?$_Tree@V?$_Tset_traits@UShortChannelInfo@RevisionsQuery@@U?$less@UShortChannelInfo@RevisionsQuery@@@std@@V?$allocator@UShortChannelInfo@RevisionsQuery@@@4@$0A@@std@@@std@@IAEXPAU_Node@?$_Tree_nod@V?$_Tset_traits@UShortChannelInfo@RevisionsQuery@@U?$less@UShortChannelInfo@RevisionsQuery@@@std@@V?$allocator@UShortChannelInfo@RevisionsQuery@@@4@$0A@@std@@@2@@Z 100076fd f i UnityWebPlayerPlugin.obj
 0001:00006742       ??$?HDU?$char_traits@D@std@@V?$allocator@D@1@@std@@YA?AV?$basic_string@DU?$char_traits@D@std@@V?$allocator@D@2@@0@ABV10@PBD@Z 10007742 f i UnityWebPlayerPlugin.obj
 0001:00006799       ??$ConvertUTF8ToWideString@V?$basic_string@DU?$char_traits@D@std@@V?$allocator@D@2@@std@@V?$basic_string@_WU?$char_traits@_W@std@@V?$allocator@_W@2@@2@@@YAXABV?$basic_string@DU?$char_traits@D@std@@V?$allocator@D@2@@std@@AAV?$basic_string@_WU?$char_traits@_W@std@@V?$allocator@_W@2@@1@@Z 10007799 f i UnityWebPlayerPlugin.obj
 0001:000067cf       ??$?HDU?$char_traits@D@std@@V?$allocator@D@1@@std@@YA?AV?$basic_string@DU?$char_traits@D@std@@V?$allocator@D@2@@0@PBDABV10@@Z 100077cf f i UnityWebPlayerPlugin.obj
 0001:0000681a       ??$?8DU?$char_traits@D@std@@V?$allocator@D@1@@std@@YA_NABV?$basic_string@DU?$char_traits@D@std@@V?$allocator@D@2@@0@0@Z 1000781a f i UnityWebPlayerPlugin.obj
 0001:00006837       ??$_Buynode@UShortChannelInfo@RevisionsQuery@@@?$_Tree_val@V?$_Tset_traits@UShortChannelInfo@RevisionsQuery@@U?$less@UShortChannelInfo@RevisionsQuery@@@std@@V?$allocator@UShortChannelInfo@RevisionsQuery@@@4@$0A@@std@@@std@@QAEPAU_Node@?$_Tree_nod@V?$_Tset_traits@UShortChannelInfo@RevisionsQuery@@U?$less@UShortChannelInfo@RevisionsQuery@@@std@@V?$allocator@UShortChannelInfo@RevisionsQuery@@@4@$0A@@std@@@1@$$QAUShortChannelInfo@RevisionsQuery@@@Z 10007837 f i WebCommonLib:RevisionsQuery.obj
 0001:00006837       ??$_Buynode@AAUShortChannelInfo@RevisionsQuery@@@?$_Tree_val@V?$_Tset_traits@UShortChannelInfo@RevisionsQuery@@U?$less@UShortChannelInfo@RevisionsQuery@@@std@@V?$allocator@UShortChannelInfo@RevisionsQuery@@@4@$0A@@std@@@std@@QAEPAU_Node@?$_Tree_nod@V?$_Tset_traits@UShortChannelInfo@RevisionsQuery@@U?$less@UShortChannelInfo@RevisionsQuery@@@std@@V?$allocator@UShortChannelInfo@RevisionsQuery@@@4@$0A@@std@@@1@AAUShortChannelInfo@RevisionsQuery@@@Z 10007837 f i UnityWebPlayerPlugin.obj
 0001:000068a8       ?reserve@?$basic_string@DU?$char_traits@D@std@@V?$allocator@D@2@@std@@QAEXI@Z 100078a8 f i UnityWebPlayerPlugin.obj
 0001:000068df       ??$ChangeStringFormat@PBDV?$basic_string@_WU?$char_traits@_W@std@@V?$allocator@_W@2@@std@@Umulti_byte_to_wide@detail@@@detail@@YAXABQBDIAAV?$basic_string@_WU?$char_traits@_W@std@@V?$allocator@_W@2@@std@@Umulti_byte_to_wide@0@@Z 100078df f i UnityWebPlayerPlugin.obj
 0001:0000694e       ??1ShortChannelInfo@RevisionsQuery@@QAE@XZ 1000794e f i UnityWebPlayerPlugin.obj
 0001:00006972       ?resize@?$basic_string@_WU?$char_traits@_W@std@@V?$allocator@_W@2@@std@@QAEXI_W@Z 10007972 f i UnityWebPlayerPlugin.obj
 0001:00006998       ?append@?$basic_string@_WU?$char_traits@_W@std@@V?$allocator@_W@2@@std@@QAEAAV12@I_W@Z 10007998 f i UnityWebPlayerPlugin.obj
 0001:000069fa       ?_Chassign@?$basic_string@_WU?$char_traits@_W@std@@V?$allocator@_W@2@@std@@QAEXII_W@Z 100079fa f i UnityWebPlayerPlugin.obj
 0001:00006a39       ??$convert@V?$basic_string@_WU?$char_traits@_W@std@@V?$allocator@_W@2@@std@@@multi_byte_to_wide@detail@@QBEXPBDIAAV?$basic_string@_WU?$char_traits@_W@std@@V?$allocator@_W@2@@std@@@Z 10007a39 f i UnityWebPlayerPlugin.obj
 0001:00006a63       ??0ShortChannelInfo@RevisionsQuery@@QAE@ABU01@@Z 10007a63 f i UnityWebPlayerPlugin.obj
 0001:00006a8a       _wmemset                   10007a8a f i UnityWebPlayerPlugin.obj
 0001:00006ab4       _NP_Shutdown@0             10007ab4 f   np_entry.obj
 0001:00006b4d       _NP_Initialize@4           10007b4d f   np_entry.obj
 0001:00006be5       _NP_GetEntryPoints@4       10007be5 f   np_entry.obj
 0001:00006bf4       _NPP_New                   10007bf4 f   npp_gate.obj
 0001:00006c58       _NPP_Destroy               10007c58 f   npp_gate.obj
 0001:00006c88       _NPP_SetWindow             10007c88 f   npp_gate.obj
 0001:00006d20       _NPP_NewStream             10007d20 f   npp_gate.obj
 0001:00006d4d       _NPP_WriteReady            10007d4d f   npp_gate.obj
 0001:00006d6e       _NPP_Write                 10007d6e f   npp_gate.obj
 0001:00006d96       _NPP_DestroyStream         10007d96 f   npp_gate.obj
 0001:00006dbd       _NPP_StreamAsFile          10007dbd f   npp_gate.obj
 0001:00006dda       _NPP_Print                 10007dda f   npp_gate.obj
 0001:00006df4       _NPP_URLNotify             10007df4 f   npp_gate.obj
 0001:00006e14       _NPP_URLRedirectNotify     10007e14 f   npp_gate.obj
 0001:00006e34       _NPP_GetValue              10007e34 f   npp_gate.obj
 0001:00006e5b       _NPP_SetValue              10007e5b f   npp_gate.obj
 0001:00006e82       _NPP_HandleEvent           10007e82 f   npp_gate.obj
 0001:00006ea0       ?NetscapeStartNaturalDownload@@YAPAVDownload@@AAU_NPStream@@AAVLogger@@@Z 10007ea0 f   DownloadNetscape.obj
 0001:00006f4e       ?OnNetscapeNewStream@@YAFPADPAU_NPStream@@EPAG@Z 10007f4e f   DownloadNetscape.obj
 0001:00006fe7       ?OnNetscapeDestroyStream@@YAFPAU_NPStream@@F@Z 10007fe7 f   DownloadNetscape.obj
 0001:0000706a       ?OnNetscapeURLRedirectNotify@@YAXPBDIPAX@Z 1000806a f   DownloadNetscape.obj
 0001:000070e8       ?NetscapeSetupProgressParams@@YAXAAVPluginInstance@@PAU_NPP@@FQAPAD2@Z 100080e8 f   DownloadNetscape.obj
 0001:0000721d       ?GetBoolValue@?A0x63a28605@@YA_NPBD@Z 1000821d f i DownloadNetscape.obj
 0001:0000725e       ?NetscapeParseEmbedParameters@@YAXAAVPluginInstance@@FQAPAD1@Z 1000825e f   DownloadNetscape.obj
 0001:0000741c       ??0VariantValue@@QAE@XZ    1000841c f i NetscapeScriptablePlugin.obj
 0001:00007433       ??0VariantValue@@QAE@ABU0@@Z 10008433 f i NetscapeScriptablePlugin.obj
 0001:0000746d       ?pluginHasMethod@@YA_NPAUNPObject@@PAX@Z 1000846d f   NetscapeScriptablePlugin.obj
 0001:0000748e       ?pluginGetProperty@@YA_NPAUNPObject@@PAXPAU_NPVariant@@@Z 1000848e f   NetscapeScriptablePlugin.obj
 0001:0000749f       ?pluginSetProperty@@YA_NPAUNPObject@@PAXPBU_NPVariant@@@Z 1000849f f   NetscapeScriptablePlugin.obj
 0001:000074a2       ?pluginRemoveProperty@@YA_NPAUNPObject@@PAX@Z 100084a2 f   NetscapeScriptablePlugin.obj
 0001:000074a2       ?pluginHasProperty@@YA_NPAUNPObject@@PAX@Z 100084a2 f   NetscapeScriptablePlugin.obj
 0001:00007759       ?pluginInvoke@@YA_NPAUNPObject@@PAXPBU_NPVariant@@IPAU2@@Z 10008759 f   NetscapeScriptablePlugin.obj
 0001:000079e6       ?pluginInvokeDefault@@YA_NPAUNPObject@@PBU_NPVariant@@IPAU2@@Z 100089e6 f   NetscapeScriptablePlugin.obj
 0001:000079f3       ?pluginAllocate@@YAPAUNPObject@@PAU_NPP@@PAUNPClass@@@Z 100089f3 f   NetscapeScriptablePlugin.obj
 0001:00007a3f       ?pluginDeallocate@@YAXPAUNPObject@@@Z 10008a3f f   NetscapeScriptablePlugin.obj
 0001:00007a48       ?GetPluginPageURLFromDOM@NetscapeScriptablePlugin@@SA?AV?$basic_string@DU?$char_traits@D@std@@V?$allocator@D@2@@std@@PAU_NPP@@AAVLogger@@@Z 10008a48 f   NetscapeScriptablePlugin.obj
 0001:00007bb5       ?ProcessExternalCalls@NetscapeScriptablePlugin@@SAXPAU_NPP@@ABV?$basic_string@DU?$char_traits@D@std@@V?$allocator@D@2@@std@@@Z 10008bb5 f   NetscapeScriptablePlugin.obj
 0001:00007c2b       ?push_back@?$vector@UVariantValue@@V?$allocator@UVariantValue@@@std@@@std@@QAEX$$QAUVariantValue@@@Z 10008c2b f i NetscapeScriptablePlugin.obj
 0001:00007c80       ?replace@?$basic_string@DU?$char_traits@D@std@@V?$allocator@D@2@@std@@QAEAAV12@IIABV12@II@Z 10008c80 f i NetscapeScriptablePlugin.obj
 0001:00007f09       ?_Reserve@?$vector@UVariantValue@@V?$allocator@UVariantValue@@@std@@@std@@IAEXI@Z 10008f09 f i NetscapeScriptablePlugin.obj
 0001:00007f60       ?reserve@?$vector@UVariantValue@@V?$allocator@UVariantValue@@@std@@@std@@QAEXI@Z 10008f60 f i NetscapeScriptablePlugin.obj
 0001:0000801a       ?_Destroy@?$vector@UVariantValue@@V?$allocator@UVariantValue@@@std@@@std@@IAEXPAUVariantValue@@0@Z 1000901a f i NetscapeScriptablePlugin.obj
 0001:00008045       ?allocate@?$allocator@UVariantValue@@@std@@QAEPAUVariantValue@@I@Z 10009045 f i NetscapeScriptablePlugin.obj
 0001:0000808e       ??$_Uninit_move@PAUVariantValue@@PAU1@V?$allocator@UVariantValue@@@std@@U1@@std@@YAPAUVariantValue@@PAU1@00AAV?$allocator@UVariantValue@@@0@0U_Nonscalar_ptr_iterator_tag@0@@Z 1000908e f i NetscapeScriptablePlugin.obj
 0001:00008110       ??_GDownloaderNetscape@@UAEPAXI@Z 10009110 f i DownloadManager.obj
 0001:00008110       ??_GDownload@@UAEPAXI@Z    10009110 f i WebCommonLib:Download.obj
 0001:00008110       ??_EDownload@@UAEPAXI@Z    10009110 f i  CIL library: CIL module
 0001:00008110       ??_EDownloaderNetscape@@UAEPAXI@Z 10009110 f i  CIL library: CIL module
 0001:0000812f       ??1Download@@UAE@XZ        1000912f f   WebCommonLib:Download.obj
 0001:0000815a       ?Append@Download@@QAEXPBXI@Z 1000915a f   WebCommonLib:Download.obj
 0001:000081e6       ?HandleExternalDownloadComplete@Download@@QAEXXZ 100091e6 f   WebCommonLib:Download.obj
 0001:00008211       ??0Mutex@@QAE@XZ           10009211 f   WebCommonLib:Mutex.obj
 0001:00008229       ??0AutoLock@SystemWideMutex@@QAE@AAV1@M@Z 10009229 f i WebCommonLib:PluginManager.obj
 0001:00008279       ??1UpdaterProxy@@QAE@XZ    10009279 f i WebCommonLib:PluginManager.obj
 0001:0000830f       ?ConvertSeparatorsToWindows@@YAXAAV?$basic_string@DU?$char_traits@D@std@@V?$allocator@D@2@@std@@@Z 1000930f f i WebCommonLib:PluginManager.obj
 0001:00008342       ?ConvertWindowsPathName@@YAXPB_WAAV?$basic_string@DU?$char_traits@D@std@@V?$allocator@D@2@@std@@@Z 10009342 f i WebCommonLib:PluginManager.obj
 0001:0000847c       ??0Timer@?A0xcd4663a9@@QAE@G@Z 1000947c f i WebCommonLib:PluginManager.obj
 0001:00008525       ?AddPlugin@Timer@?A0xcd4663a9@@QAEXPAVUnityWebPlayerPluginInstance@@@Z 10009525 f i WebCommonLib:PluginManager.obj
 0001:000085b3       ?RemovePlugin@Timer@?A0xcd4663a9@@QAE_NPAVUnityWebPlayerPluginInstance@@@Z 100095b3 f i WebCommonLib:PluginManager.obj
 0001:00008621       ?DestroyTimerWindow@Timer@?A0xcd4663a9@@QAEXXZ 10009621 f i WebCommonLib:PluginManager.obj
 0001:00008691       ?Tick@Timer@?A0xcd4663a9@@CGXPAXE@Z 10009691 f i WebCommonLib:PluginManager.obj
 0001:00008736       ?ComparePlugins@Timer@?A0xcd4663a9@@CA_NPAVUnityWebPlayerPluginInstance@@0@Z 10009736 f i WebCommonLib:PluginManager.obj
 0001:00008766       ?WindowProc@Timer@?A0xcd4663a9@@CGJPAUHWND__@@IIJ@Z 10009766 f i WebCommonLib:PluginManager.obj
 0001:000088e7       ??0WindowsTimerManager@?A0xcd4663a9@@IAE@XZ 100098e7 f i WebCommonLib:PluginManager.obj
 0001:00008961       ?CleanupPluginImpl@WindowsTimerManager@?A0xcd4663a9@@CAXAAU?$pair@$$CBKPAVTimer@?A0xcd4663a9@@@std@@@Z 10009961 f i WebCommonLib:PluginManager.obj
 0001:000089a6       ?AddPlugin@WindowsTimerManager@?A0xcd4663a9@@AAEXKPAVUnityWebPlayerPluginInstance@@@Z 100099a6 f i WebCommonLib:PluginManager.obj
 0001:00008a19       ??_GWindowsTimerManager@?A0xcd4663a9@@IAEPAXI@Z 10009a19 f i WebCommonLib:PluginManager.obj
 0001:00008a82       ?RemovePlugin@WindowsTimerManager@?A0xcd4663a9@@SAXPAVUnityWebPlayerPluginInstance@@@Z 10009a82 f   WebCommonLib:PluginManager.obj
 0001:00008ae3       ?GetDefaultReleaseChannel@PluginManager@@QBE?AV?$basic_string@DU?$char_traits@D@std@@V?$allocator@D@2@@std@@XZ 10009ae3 f   WebCommonLib:PluginManager.obj
 0001:00008b32       ?GetDevelopmentPlayer@PluginManager@@QBE_NXZ 10009b32 f   WebCommonLib:PluginManager.obj
 0001:00008ba2       ?OnCrashCallback@PluginManager@@SAXPBD@Z 10009ba2 f   WebCommonLib:PluginManager.obj
 0001:00008c67       ?IsAdminPath@PluginManager@@AAE_NABV?$basic_string@DU?$char_traits@D@std@@V?$allocator@D@2@@std@@@Z 10009c67 f   WebCommonLib:PluginManager.obj
 0001:00008d14       ??0PluginManager@@AAE@XZ   10009d14 f   WebCommonLib:PluginManager.obj
 0001:00009454       ??1PluginManager@@AAE@XZ   1000a454 f   WebCommonLib:PluginManager.obj
 0001:00009595       ??_GLogger@@QAEPAXI@Z      1000a595 f i WebCommonLib:PluginManager.obj
 0001:000095bb       ?AddPlugin@PluginManager@@QAEXAAVPluginInstance@@@Z 1000a5bb f   WebCommonLib:PluginManager.obj
 0001:0000969d       ?RemovePlugin@PluginManager@@QAEXAAVPluginInstance@@@Z 1000a69d f   WebCommonLib:PluginManager.obj
 0001:000097cb       ?DeleteTempFiles@PluginManager@@QAEX_N@Z 1000a7cb f   WebCommonLib:PluginManager.obj
 0001:00009868       ?GetInstalledRevision@PluginManager@@QAEHW4BundleID@@ABV?$basic_string@DU?$char_traits@D@std@@V?$allocator@D@2@@std@@1PAV34@@Z 1000a868 f   WebCommonLib:PluginManager.obj
 0001:00009955       ?GetTemporaryPathRevision@PluginManager@@QAEHABV?$basic_string@DU?$char_traits@D@std@@V?$allocator@D@2@@std@@W4BundleID@@0@Z 1000a955 f   WebCommonLib:PluginManager.obj
 0001:0000999a       ?GetRevisionFromPath@PluginManager@@CAHABV?$basic_string@DU?$char_traits@D@std@@V?$allocator@D@2@@std@@PAV23@@Z 1000a99a f   WebCommonLib:PluginManager.obj
 0001:00009ae6       ?ApplySelfUpdate@PluginManager@@AAE?AW4UpdateResult@1@PBEIAAUUpdateInfo@1@PAUHWND__@@@Z 1000aae6 f   WebCommonLib:PluginManager.obj
 0001:00009d46       ?ApplyUpdate@PluginManager@@AAE?AW4UpdateResult@1@PBEIW4BundleID@@ABV?$basic_string@DU?$char_traits@D@std@@V?$allocator@D@2@@std@@AAUUpdateInfo@1@PAUHWND__@@@Z 1000ad46 f   WebCommonLib:PluginManager.obj
 0001:00009fd4       ?DoneWithUpdates@PluginManager@@QAEXXZ 1000afd4 f   WebCommonLib:PluginManager.obj
 0001:0000a00c       ?GetHomePath@PluginManager@@CA?AV?$basic_string@DU?$char_traits@D@std@@V?$allocator@D@2@@std@@XZ 1000b00c f   WebCommonLib:PluginManager.obj
 0001:0000a07f       ?GetHomePath@PluginManager@@CA?AV?$basic_string@DU?$char_traits@D@std@@V?$allocator@D@2@@std@@PAUHKEY__@@@Z 1000b07f f   WebCommonLib:PluginManager.obj
 0001:0000a0f8       ?GetDefaultUserHomePath@PluginManager@@CA?AV?$basic_string@DU?$char_traits@D@std@@V?$allocator@D@2@@std@@XZ 1000b0f8 f   WebCommonLib:PluginManager.obj
 0001:0000a1ce       ?GetDefaultOldUserHomePath@PluginManager@@CA?AV?$basic_string@DU?$char_traits@D@std@@V?$allocator@D@2@@std@@XZ 1000b1ce f   WebCommonLib:PluginManager.obj
 0001:0000a224       ?CheckBundleExistsInUserLocation@PluginManager@@ABE_NW4BundleID@@ABV?$basic_string@DU?$char_traits@D@std@@V?$allocator@D@2@@std@@_N1@Z 1000b224 f   WebCommonLib:PluginManager.obj
 0001:0000a30d       ?CreateUpdaterProxy@PluginManager@@AAE_NXZ 1000b30d f   WebCommonLib:PluginManager.obj
 0001:0000a474       ?GetInstalledPath@PluginManager@@QBE?AV?$basic_string@DU?$char_traits@D@std@@V?$allocator@D@2@@std@@W4BundleID@@ABV23@1HPAW4LocationType@1@@Z 1000b474 f   WebCommonLib:PluginManager.obj
 0001:0000a60b       ?OnUpdateDownloadProcessing@PluginManager@@AAEXAAUUpdateInfo@1@@Z 1000b60b f   WebCommonLib:PluginManager.obj
 0001:0000a6a1       ?Tick@PluginManager@@QAEXPAUHWND__@@@Z 1000b6a1 f   WebCommonLib:PluginManager.obj
 0001:0000a850       ?Log@PluginManager@@QAAXPBDZZ 1000b850 f   WebCommonLib:PluginManager.obj
 0001:0000a869       ?erase@?$_Tree@V?$_Tmap_traits@IW4UpdateStatus@UpdaterProxy@@U?$less@I@std@@V?$allocator@U?$pair@$$CBIW4UpdateStatus@UpdaterProxy@@@std@@@4@$0A@@std@@@std@@QAEIABI@Z 1000b869 f i WebCommonLib:PluginManager.obj
 0001:0000a907       ?Free@?$ResourcePtr@VUpdaterProxy@@@@QAEXXZ 1000b907 f i WebCommonLib:PluginManager.obj
 0001:0000a924       ?push_back@?$vector@PAVPluginInstance@@V?$allocator@PAVPluginInstance@@@std@@@std@@QAEX$$QAPAVPluginInstance@@@Z 1000b924 f i WebCommonLib:PluginManager.obj
 0001:0000a970       ??1?$vector@UUpdateInfo@PluginManager@@V?$allocator@UUpdateInfo@PluginManager@@@std@@@std@@QAE@XZ 1000b970 f i WebCommonLib:PluginManager.obj
 0001:0000a992       ?push_back@?$vector@UUpdateInfo@PluginManager@@V?$allocator@UUpdateInfo@PluginManager@@@std@@@std@@QAEXABUUpdateInfo@PluginManager@@@Z 1000b992 f i WebCommonLib:PluginManager.obj
 0001:0000a9e6       ?erase@?$vector@UUpdateInfo@PluginManager@@V?$allocator@UUpdateInfo@PluginManager@@@std@@@std@@QAE?AV?$_Vector_iterator@V?$_Vector_val@UUpdateInfo@PluginManager@@V?$allocator@UUpdateInfo@PluginManager@@@std@@@std@@@2@V?$_Vector_const_iterator@V?$_Vector_val@UUpdateInfo@PluginManager@@V?$allocator@UUpdateInfo@PluginManager@@@std@@@std@@@2@@Z 1000b9e6 f i WebCommonLib:PluginManager.obj
 0001:0000aa5e       ?Free@?$ResourcePtr@VPipeRoot@@@@QAEXXZ 1000ba5e f i WebCommonLib:PluginManager.obj
 0001:0000aa8d       ?erase@?$_Tree@V?$_Tmap_traits@IW4UpdateStatus@UpdaterProxy@@U?$less@I@std@@V?$allocator@U?$pair@$$CBIW4UpdateStatus@UpdaterProxy@@@std@@@4@$0A@@std@@@std@@QAE?AV?$_Tree_iterator@V?$_Tree_val@V?$_Tmap_traits@IW4UpdateStatus@UpdaterProxy@@U?$less@I@std@@V?$allocator@U?$pair@$$CBIW4UpdateStatus@UpdaterProxy@@@std@@@4@$0A@@std@@@std@@@2@V?$_Tree_const_iterator@V?$_Tree_val@V?$_Tmap_traits@IW4UpdateStatus@UpdaterProxy@@U?$less@I@std@@V?$allocator@U?$pair@$$CBIW4UpdateStatus@UpdaterProxy@@@std@@@4@$0A@@std@@@std@@@2@0@Z 1000ba8d f i WebCommonLib:PluginManager.obj
 0001:0000aadc       ?_Reserve@?$vector@PAVDownload@@V?$allocator@PAVDownload@@@std@@@std@@IAEXI@Z 1000badc f i WebCommonLib:PluginInstance.obj
 0001:0000aadc       ?_Reserve@?$vector@PAVUnityWebPlayerPluginInstance@@V?$allocator@PAVUnityWebPlayerPluginInstance@@@std@@@std@@IAEXI@Z 1000badc f i WebCommonLib:PluginManager.obj
 0001:0000aadc       ?_Reserve@?$vector@PAVPluginInstance@@V?$allocator@PAVPluginInstance@@@std@@@std@@IAEXI@Z 1000badc f i WebCommonLib:PluginManager.obj
 0001:0000ab2b       ?_Destroy@?$vector@UUpdateInfo@PluginManager@@V?$allocator@UUpdateInfo@PluginManager@@@std@@@std@@IAEXPAUUpdateInfo@PluginManager@@0@Z 1000bb2b f i WebCommonLib:PluginManager.obj
 0001:0000ab5e       ?_Reserve@?$vector@UUpdateInfo@PluginManager@@V?$allocator@UUpdateInfo@PluginManager@@@std@@@std@@IAEXI@Z 1000bb5e f i WebCommonLib:PluginManager.obj
 0001:0000abb5       ?_Lrotate@?$_Tree@V?$_Tmap_traits@IW4UpdateStatus@UpdaterProxy@@U?$less@I@std@@V?$allocator@U?$pair@$$CBIW4UpdateStatus@UpdaterProxy@@@std@@@4@$0A@@std@@@std@@IAEXPAU_Node@?$_Tree_nod@V?$_Tmap_traits@IW4UpdateStatus@UpdaterProxy@@U?$less@I@std@@V?$allocator@U?$pair@$$CBIW4UpdateStatus@UpdaterProxy@@@std@@@4@$0A@@std@@@2@@Z 1000bbb5 f i WebCommonLib:PluginManager.obj
 0001:0000abb5       ?_Lrotate@?$_Tree@V?$_Tmap_traits@KPAVTimer@?A0xcd4663a9@@U?$less@K@std@@V?$allocator@U?$pair@$$CBKPAVTimer@?A0xcd4663a9@@@std@@@4@$0A@@std@@@std@@IAEXPAU_Node@?$_Tree_nod@V?$_Tmap_traits@KPAVTimer@?A0xcd4663a9@@U?$less@K@std@@V?$allocator@U?$pair@$$CBKPAVTimer@?A0xcd4663a9@@@std@@@4@$0A@@std@@@2@@Z 1000bbb5 f i WebCommonLib:PluginManager.obj
 0001:0000abf8       ?_Rrotate@?$_Tree@V?$_Tmap_traits@IW4UpdateStatus@UpdaterProxy@@U?$less@I@std@@V?$allocator@U?$pair@$$CBIW4UpdateStatus@UpdaterProxy@@@std@@@4@$0A@@std@@@std@@IAEXPAU_Node@?$_Tree_nod@V?$_Tmap_traits@IW4UpdateStatus@UpdaterProxy@@U?$less@I@std@@V?$allocator@U?$pair@$$CBIW4UpdateStatus@UpdaterProxy@@@std@@@4@$0A@@std@@@2@@Z 1000bbf8 f i WebCommonLib:PluginManager.obj
 0001:0000abf8       ?_Rrotate@?$_Tree@V?$_Tmap_traits@KPAVTimer@?A0xcd4663a9@@U?$less@K@std@@V?$allocator@U?$pair@$$CBKPAVTimer@?A0xcd4663a9@@@std@@@4@$0A@@std@@@std@@IAEXPAU_Node@?$_Tree_nod@V?$_Tmap_traits@KPAVTimer@?A0xcd4663a9@@U?$less@K@std@@V?$allocator@U?$pair@$$CBKPAVTimer@?A0xcd4663a9@@@std@@@4@$0A@@std@@@2@@Z 1000bbf8 f i WebCommonLib:PluginManager.obj
 0001:0000ac3d       ?erase@?$_Tree@V?$_Tmap_traits@IW4UpdateStatus@UpdaterProxy@@U?$less@I@std@@V?$allocator@U?$pair@$$CBIW4UpdateStatus@UpdaterProxy@@@std@@@4@$0A@@std@@@std@@QAE?AV?$_Tree_iterator@V?$_Tree_val@V?$_Tmap_traits@IW4UpdateStatus@UpdaterProxy@@U?$less@I@std@@V?$allocator@U?$pair@$$CBIW4UpdateStatus@UpdaterProxy@@@std@@@4@$0A@@std@@@std@@@2@V?$_Tree_const_iterator@V?$_Tree_val@V?$_Tmap_traits@IW4UpdateStatus@UpdaterProxy@@U?$less@I@std@@V?$allocator@U?$pair@$$CBIW4UpdateStatus@UpdaterProxy@@@std@@@4@$0A@@std@@@std@@@2@@Z 1000bc3d f i WebCommonLib:PluginManager.obj
 0001:0000ac3d       ?erase@?$_Tree@V?$_Tmap_traits@KPAVTimer@?A0xcd4663a9@@U?$less@K@std@@V?$allocator@U?$pair@$$CBKPAVTimer@?A0xcd4663a9@@@std@@@4@$0A@@std@@@std@@QAE?AV?$_Tree_iterator@V?$_Tree_val@V?$_Tmap_traits@KPAVTimer@?A0xcd4663a9@@U?$less@K@std@@V?$allocator@U?$pair@$$CBKPAVTimer@?A0xcd4663a9@@@std@@@4@$0A@@std@@@std@@@2@V?$_Tree_const_iterator@V?$_Tree_val@V?$_Tmap_traits@KPAVTimer@?A0xcd4663a9@@U?$less@K@std@@V?$allocator@U?$pair@$$CBKPAVTimer@?A0xcd4663a9@@@std@@@4@$0A@@std@@@std@@@2@@Z 1000bc3d f i WebCommonLib:PluginManager.obj
 0001:0000ae92       ?clear@?$_Tree@V?$_Tmap_traits@IW4UpdateStatus@UpdaterProxy@@U?$less@I@std@@V?$allocator@U?$pair@$$CBIW4UpdateStatus@UpdaterProxy@@@std@@@4@$0A@@std@@@std@@QAEXXZ 1000be92 f i WebCommonLib:PluginManager.obj
 0001:0000ae92       ?clear@?$_Tree@V?$_Tmap_traits@KPAVTimer@?A0xcd4663a9@@U?$less@K@std@@V?$allocator@U?$pair@$$CBKPAVTimer@?A0xcd4663a9@@@std@@@4@$0A@@std@@@std@@QAEXXZ 1000be92 f i WebCommonLib:PluginManager.obj
 0001:0000aeb7       ?clear@?$list@V?$ResourcePtr@VUpdateOperation@UpdaterProxy@@@@V?$allocator@V?$ResourcePtr@VUpdateOperation@UpdaterProxy@@@@@std@@@std@@QAEXXZ 1000beb7 f i WebCommonLib:PluginManager.obj
 0001:0000aeef       ?reserve@?$vector@PAVDownload@@V?$allocator@PAVDownload@@@std@@@std@@QAEXI@Z 1000beef f i WebCommonLib:PluginInstance.obj
 0001:0000aeef       ?reserve@?$vector@PAVPluginInstance@@V?$allocator@PAVPluginInstance@@@std@@@std@@QAEXI@Z 1000beef f i WebCommonLib:PluginManager.obj
 0001:0000aeef       ?reserve@?$vector@PAVUnityWebPlayerPluginInstance@@V?$allocator@PAVUnityWebPlayerPluginInstance@@@std@@@std@@QAEXI@Z 1000beef f i WebCommonLib:PluginManager.obj
 0001:0000af95       ?reserve@?$vector@UUpdateInfo@PluginManager@@V?$allocator@UUpdateInfo@PluginManager@@@std@@@std@@QAEXI@Z 1000bf95 f i WebCommonLib:PluginManager.obj
 0001:0000b04f       ?_Chassign@?$basic_string@DU?$char_traits@D@std@@V?$allocator@D@2@@std@@QAEXIID@Z 1000c04f f i WebCommonLib:PluginManager.obj
 0001:0000b08b       ?allocate@?$allocator@PAVUnityWebPlayerPluginInstance@@@std@@QAEPAPAVUnityWebPlayerPluginInstance@@I@Z 1000c08b f i WebCommonLib:PluginManager.obj
 0001:0000b08b       ?allocate@?$allocator@PAVDownload@@@std@@QAEPAPAVDownload@@I@Z 1000c08b f i WebCommonLib:PluginInstance.obj
 0001:0000b08b       ?allocate@?$allocator@PAVPluginInstance@@@std@@QAEPAPAVPluginInstance@@I@Z 1000c08b f i WebCommonLib:PluginManager.obj
 0001:0000b0d6       ?allocate@?$allocator@UUpdateInfo@PluginManager@@@std@@QAEPAUUpdateInfo@PluginManager@@I@Z 1000c0d6 f i WebCommonLib:PluginManager.obj
 0001:0000b11f       ??$ChangeStringFormat@PB_WV?$basic_string@DU?$char_traits@D@std@@V?$allocator@D@2@@std@@Uwide_to_multi_byte@detail@@@detail@@YAXABQB_WIAAV?$basic_string@DU?$char_traits@D@std@@V?$allocator@D@2@@std@@Uwide_to_multi_byte@0@@Z 1000c11f f i WebCommonLib:PluginManager.obj
 0001:0000b188       ??$?HDU?$char_traits@D@std@@V?$allocator@D@1@@std@@YA?AV?$basic_string@DU?$char_traits@D@std@@V?$allocator@D@2@@0@PBD$$QAV10@@Z 1000c188 f i WebCommonLib:PluginManager.obj
 0001:0000b1ae       ??$?HDU?$char_traits@D@std@@V?$allocator@D@1@@std@@YA?AV?$basic_string@DU?$char_traits@D@std@@V?$allocator@D@2@@0@$$QAV10@PBD@Z 1000c1ae f i WebCommonLib:PluginManager.obj
 0001:0000b1d4       ??$?HDU?$char_traits@D@std@@V?$allocator@D@1@@std@@YA?AV?$basic_string@DU?$char_traits@D@std@@V?$allocator@D@2@@0@$$QAV10@ABV10@@Z 1000c1d4 f i WebCommonLib:PluginManager.obj
 0001:0000b1f4       ??$?HDU?$char_traits@D@std@@V?$allocator@D@1@@std@@YA?AV?$basic_string@DU?$char_traits@D@std@@V?$allocator@D@2@@0@ABV10@0@Z 1000c1f4 f i WebCommonLib:PluginManager.obj
 0001:0000b22b       ?insert@?$basic_string@DU?$char_traits@D@std@@V?$allocator@D@2@@std@@QAEAAV12@IABV12@II@Z 1000c22b f i WebCommonLib:PluginManager.obj
 0001:0000b347       ?insert@?$basic_string@DU?$char_traits@D@std@@V?$allocator@D@2@@std@@QAEAAV12@IPBDI@Z 1000c347 f i WebCommonLib:PluginManager.obj
 0001:0000b3ff       ?resize@?$basic_string@DU?$char_traits@D@std@@V?$allocator@D@2@@std@@QAEXID@Z 1000c3ff f i WebCommonLib:PluginManager.obj
 0001:0000b425       ?append@?$basic_string@DU?$char_traits@D@std@@V?$allocator@D@2@@std@@QAEAAV12@ID@Z 1000c425 f i WebCommonLib:PluginManager.obj
 0001:0000b485       ??$convert@V?$basic_string@DU?$char_traits@D@std@@V?$allocator@D@2@@std@@@wide_to_multi_byte@detail@@QBEXPB_WIAAV?$basic_string@DU?$char_traits@D@std@@V?$allocator@D@2@@std@@@Z 1000c485 f i WebCommonLib:PluginManager.obj
 0001:0000b4b1       ??$ConvertWideToUTF8String@V?$basic_string@DU?$char_traits@D@std@@V?$allocator@D@2@@std@@@@YAXPB_WAAV?$basic_string@DU?$char_traits@D@std@@V?$allocator@D@2@@std@@@Z 1000c4b1 f i WebCommonLib:PluginManager.obj
 0001:0000b4ed       ??$_Sort@PAPAVUnityWebPlayerPluginInstance@@HP6A_NPAV1@0@Z@std@@YAXPAPAVUnityWebPlayerPluginInstance@@0HP6A_NPAV1@1@Z@Z 1000c4ed f i WebCommonLib:PluginManager.obj
 0001:0000b615       ??$ConvertUnityPathNameImpl@V?$allocator@D@std@@V?$allocator@_W@2@@detail@@YAXABV?$basic_string@DU?$char_traits@D@std@@V?$allocator@D@2@@std@@AAV?$basic_string@_WU?$char_traits@_W@std@@V?$allocator@_W@2@@2@@Z 1000c615 f i WebCommonLib:PluginManager.obj
 0001:0000b666       ??0UpdateInfo@PluginManager@@QAE@ABU01@@Z 1000c666 f i WebCommonLib:PluginManager.obj
 0001:0000b697       ??1?$ResourcePtr@VUpdateOperation@UpdaterProxy@@@@QAE@XZ 1000c697 f i WebCommonLib:PluginManager.obj
 0001:0000b6b3       ??$_Replace@PA_W_W@std@@YAXPA_W0AB_W1@Z 1000c6b3 f i WebCommonLib:PluginManager.obj
 0001:0000b6d9       ??$_Unguarded_partition@PAPAVUnityWebPlayerPluginInstance@@P6A_NPAV1@0@Z@std@@YA?AU?$pair@PAPAVUnityWebPlayerPluginInstance@@PAPAV1@@0@PAPAVUnityWebPlayerPluginInstance@@0P6A_NPAV2@1@Z@Z 1000c6d9 f i WebCommonLib:PluginManager.obj
 0001:0000b851       ??$_Insertion_sort@PAPAVUnityWebPlayerPluginInstance@@P6A_NPAV1@0@Z@std@@YAXPAPAVUnityWebPlayerPluginInstance@@0P6A_NPAV1@1@Z@Z 1000c851 f i WebCommonLib:PluginManager.obj
 0001:0000b8c9       ??$_Uninit_move@PAUUpdateInfo@PluginManager@@PAU12@V?$allocator@UUpdateInfo@PluginManager@@@std@@U12@@std@@YAPAUUpdateInfo@PluginManager@@PAU12@00AAV?$allocator@UUpdateInfo@PluginManager@@@0@0U_Nonscalar_ptr_iterator_tag@0@@Z 1000c8c9 f i WebCommonLib:PluginManager.obj
 0001:0000b950       ??$_Median@PAPAVUnityWebPlayerPluginInstance@@P6A_NPAV1@0@Z@std@@YAXPAPAVUnityWebPlayerPluginInstance@@00P6A_NPAV1@1@Z@Z 1000c950 f i WebCommonLib:PluginManager.obj
 0001:0000b9e0       ??$_Med3@PAPAVUnityWebPlayerPluginInstance@@P6A_NPAV1@0@Z@std@@YAXPAPAVUnityWebPlayerPluginInstance@@00P6A_NPAV1@1@Z@Z 1000c9e0 f i WebCommonLib:PluginManager.obj
 0001:0000ba24       ??$_Adjust_heap@PAPAVUnityWebPlayerPluginInstance@@HPAV1@P6A_NPAV1@0@Z@std@@YAXPAPAVUnityWebPlayerPluginInstance@@HH$$QAPAV1@P6A_NPAV1@2@Z@Z 1000ca24 f i WebCommonLib:PluginManager.obj
 0001:0000baad       ?GenerateGuidString@@YA?AV?$basic_string@DU?$char_traits@D@std@@V?$allocator@D@2@@std@@XZ 1000caad f   WebCommonLib:WebPluginUtility.obj
 0001:0000bb1e       ?GetForceDevelopmentPlugin@@YA_NXZ 1000cb1e f   WebCommonLib:WebPluginUtility.obj
 0001:0000bb6c       ?GetDisableAutoUpdates@@YA_NXZ 1000cb6c f   WebCommonLib:WebPluginUtility.obj
 0001:0000bba4       ?WebDebugLog@@YAXAAVLogger@@PBDZZ 1000cba4 f   WebCommonLib:WebPluginUtility.obj
 0001:0000bbbe       ?GetKeepLogFiles@@YA_NXZ   1000cbbe f   WebCommonLib:WebPluginUtility.obj
 0001:0000bbd8       ?GetNumericVersion@@YAHABV?$basic_string@DU?$char_traits@D@std@@V?$allocator@D@2@@std@@@Z 1000cbd8 f   WebCommonLib:WebPluginUtility.obj
 0001:0000bd47       ?VFormat@@YA?AV?$basic_string@DU?$char_traits@D@std@@V?$allocator@D@2@@std@@PBDPAD@Z 1000cd47 f   WebCommonLib:WebPluginUtility.obj
 0001:0000bd82       ?Format@@YA?AV?$basic_string@DU?$char_traits@D@std@@V?$allocator@D@2@@std@@PBDZZ 1000cd82 f   WebCommonLib:WebPluginUtility.obj
 0001:0000be9c       ?CreateDIBSectionFromBGRA@?A0x6c9ab04e@@YAPAUHBITMAP__@@PAUHDC__@@PBXHH@Z 1000ce9c f   WebCommonLib:ProgressDisplayWin.obj
 0001:0000bf1a       ??0ProgressImage@@QAE@PAUHDC__@@I@Z 1000cf1a f   WebCommonLib:ProgressDisplayWin.obj
 0001:0000bfc1       ?Initialize@progress@@YAXAAVMutex@@PAUHINSTANCE__@@@Z 1000cfc1 f   WebCommonLib:ProgressDisplayWin.obj
 0001:0000c14c       ?ShowProgress@progress@@YAXAAVSetup@1@PAUHDC__@@ABUtagRECT@@MABV?$basic_string@DU?$char_traits@D@std@@V?$allocator@D@2@@std@@AAH_N@Z 1000d14c f   WebCommonLib:ProgressDisplayWin.obj
 0001:0000c51e       ?LinkSubclassProc@ProgressLink@@CGJPAUHWND__@@IIJ@Z 1000d51e f   WebCommonLib:ProgressDisplayWin.obj
 0001:0000c56f       ?Draw@ProgressLink@@QAEXAAUtagDRAWITEMSTRUCT@@@Z 1000d56f f   WebCommonLib:ProgressDisplayWin.obj
 0001:0000c65c       ?Create@ProgressLink@@QAEXPAUHINSTANCE__@@PAUHWND__@@HHW4Alignment@1@IABV?$basic_string@_WU?$char_traits@_W@std@@V?$allocator@_W@2@@std@@ABUColor@progress@@4@Z 1000d65c f   WebCommonLib:ProgressDisplayWin.obj
 0001:0000c781       ?resize@?$vector@EV?$allocator@E@std@@@std@@QAEXI@Z 1000d781 f i WebCommonLib:ProgressDisplayWin.obj
 0001:0000c816       ?reserve@?$vector@EV?$allocator@E@std@@@std@@QAEXI@Z 1000d816 f i WebCommonLib:ProgressDisplayWin.obj
 0001:0000c8e0       ??0PluginError@@QAE@ABV?$basic_string@DU?$char_traits@D@std@@V?$allocator@D@2@@std@@0_N@Z 1000d8e0 f i WebCommonLib:PluginInstance.obj
 0001:0000c924       ?AddWwwDownload@PluginInstance@@QAEXPAVDownload@@@Z 1000d924 f i WebCommonLib:PluginInstance.obj
 0001:0000c9a5       ??0PluginInstance@@QAE@PAX0P6AX0@Z@Z 1000d9a5 f   WebCommonLib:PluginInstance.obj
 0001:0000cd56       ??1PluginInstance@@QAE@XZ  1000dd56 f   WebCommonLib:PluginInstance.obj
 0001:0000ce97       ?Validate@PluginInstance@@QAE?AW4PlayerHashValidationResult@@XZ 1000de97 f   WebCommonLib:PluginInstance.obj
 0001:0000cf05       ?DeleteTempFiles@PluginInstance@@QAEX_N@Z 1000df05 f   WebCommonLib:PluginInstance.obj
 0001:0000cf7a       ?SetError@PluginInstance@@QAEXABVPluginError@@@Z 1000df7a f   WebCommonLib:PluginInstance.obj
 0001:0000cfcd       ??4PluginError@@QAEAAV0@ABV0@@Z 1000dfcd f i WebCommonLib:PluginInstance.obj
 0001:0000cff2       ?SetError@PluginInstance@@QAEXABV?$basic_string@DU?$char_traits@D@std@@V?$allocator@D@2@@std@@0_N@Z 1000dff2 f   WebCommonLib:PluginInstance.obj
 0001:0000d01b       ??Rcancelled_downloads@detail@@QBE_NPAVDownload@@@Z 1000e01b f i WebCommonLib:PluginInstance.obj
 0001:0000d042       ?Tick@PluginInstance@@QAEXXZ 1000e042 f   WebCommonLib:PluginInstance.obj
 0001:0000d099       ?ParseDataHeader@PluginInstance@@AAEXXZ 1000e099 f   WebCommonLib:PluginInstance.obj
 0001:0000d28f       ?UpdateDownloadDataFile@PluginInstance@@AAEXXZ 1000e28f f   WebCommonLib:PluginInstance.obj
 0001:0000d357       ?UpdateProgress@?A0xfeb97ede@@YAXIIAAI00@Z 1000e357 f   WebCommonLib:PluginInstance.obj
 0001:0000d382       ?UpdateProgress@PluginInstance@@AAEXXZ 1000e382 f   WebCommonLib:PluginInstance.obj
 0001:0000d4f9       ?IsReadyToLoad@PluginInstance@@QAE_NXZ 1000e4f9 f   WebCommonLib:PluginInstance.obj
 0001:0000d574       ?Log@PluginInstance@@QAAXPBDZZ 1000e574 f   WebCommonLib:PluginInstance.obj
 0001:0000d590       ?AddSendMessage@PluginInstance@@QAEXPBD0ABUVariantValue@@@Z 1000e590 f   WebCommonLib:PluginInstance.obj
 0001:0000d667       ?StartDownloadBinding2@@YAPAVDownload@@PBDPAVPluginInstance@@PAXP6AHPAV1@@ZPBXI5I@Z 1000e667 f   WebCommonLib:PluginInstance.obj
 0001:0000d6e2       ??1?$vector@UWebMessage@@V?$allocator@UWebMessage@@@std@@@std@@QAE@XZ 1000e6e2 f i WebCommonLib:PluginInstance.obj
 0001:0000d712       ?_Reserve@?$vector@UWebMessage@@V?$allocator@UWebMessage@@@std@@@std@@IAEXI@Z 1000e712 f i WebCommonLib:PluginInstance.obj
 0001:0000d769       ?reserve@?$vector@UWebMessage@@V?$allocator@UWebMessage@@@std@@@std@@QAEXI@Z 1000e769 f i WebCommonLib:PluginInstance.obj
 0001:0000d843       ?allocate@?$allocator@UWebMessage@@@std@@QAEPAUWebMessage@@I@Z 1000e843 f i WebCommonLib:PluginInstance.obj
 0001:0000d88c       ??$tick_downloads@V?$vector@PAVDownload@@V?$allocator@PAVDownload@@@std@@@std@@@@YAXAAV?$vector@PAVDownload@@V?$allocator@PAVDownload@@@std@@@std@@@Z 1000e88c f i WebCommonLib:PluginInstance.obj
 0001:0000d902       ??$_Cons_val@V?$allocator@UWebMessage@@@std@@UWebMessage@@U3@@std@@YAXAAV?$allocator@UWebMessage@@@0@PAUWebMessage@@$$QAU2@@Z 1000e902 f i WebCommonLib:PluginInstance.obj
 0001:0000d937       ??$_Uninit_move@PAUWebMessage@@PAU1@V?$allocator@UWebMessage@@@std@@U1@@std@@YAPAUWebMessage@@PAU1@00AAV?$allocator@UWebMessage@@@0@0U_Nonscalar_ptr_iterator_tag@0@@Z 1000e937 f i WebCommonLib:PluginInstance.obj
 0001:0000d9a1       ??$_Dest_val@V?$allocator@UWebMessage@@@std@@UWebMessage@@@std@@YAXAAV?$allocator@UWebMessage@@@0@PAUWebMessage@@@Z 1000e9a1 f i WebCommonLib:PluginInstance.obj
 0001:0000d9c4       ?NotifyDWWM@BogusVistaDWWMNotifier@@QAEXPAUHWND__@@@Z 1000e9c4 f   WebCommonLib:WinWebUtils.obj
 0001:0000da28       ?IsWin8OrNewer@@YA_NXZ     1000ea28 f   WebCommonLib:WinWebUtils.obj
 0001:0000da7b       ?GetTimeUSImpl@?A0x6ec35eb3@@YA_KXZ 1000ea7b f   WebCommonLib:WinWebUtils.obj
 0001:0000dab1       ?GetTimeUSImplWin7@?A0x6ec35eb3@@YA_KXZ 1000eab1 f   WebCommonLib:WinWebUtils.obj
 0001:0000dad1       ?InitializeGetTimeUS@?A0x6ec35eb3@@YAP6A_KXZXZ 1000ead1 f   WebCommonLib:WinWebUtils.obj
 0001:0000db43       ?Start@UnityInstanceThread@@QAEXPAUHINSTANCE__@@AAVPluginInstance@@PAUHWND__@@HH@Z 1000eb43 f   WebCommonLib:UnityInstanceThread.obj
 0001:0000dba5       ?Stop@UnityInstanceThread@@QAEXXZ 1000eba5 f   WebCommonLib:UnityInstanceThread.obj
 0001:0000dbe4       ?Update@UnityInstanceThread@@QAEXPAUHWND__@@HH@Z 1000ebe4 f   WebCommonLib:UnityInstanceThread.obj
 0001:0000dc90       ?SetParentInfo@UnityInstanceThread@@QAEXPAUHWND__@@HH_N@Z 1000ec90 f   WebCommonLib:UnityInstanceThread.obj
 0001:0000dce1       ?HandleForeground@UnityInstanceThread@@QAE_NXZ 1000ece1 f   WebCommonLib:UnityInstanceThread.obj
 0001:0000dd3c       ?FetchExternalCalls@UnityInstanceThread@@QAE?AV?$basic_string@DU?$char_traits@D@std@@V?$allocator@D@2@@std@@XZ 1000ed3c f   WebCommonLib:UnityInstanceThread.obj
 0001:0000deb6       ?LoadAndInitialize@UnityInstanceThread@@AAEXXZ 1000eeb6 f   WebCommonLib:UnityInstanceThread.obj
 0001:0000df42       ??$_Move@PAUWebMessage@@PAU1@@std@@YAPAUWebMessage@@PAU1@00@Z 1000ef42 f i WebCommonLib:UnityInstanceThread.obj
 0001:0000dfa0       ??4VariantValue@@QAEAAU0@ABU0@@Z 1000efa0 f i WebCommonLib:UnityInstanceThread.obj
 0001:0000dfda       ?Parse@Color@progress@@QAE_NPBD@Z 1000efda f   WebCommonLib:ProgressDisplay.obj
 0001:0000e07f       ??1Setup@progress@@QAE@XZ  1000f07f f   WebCommonLib:ProgressDisplay.obj
 0001:0000e0b6       ??0RequiredBundleRevision@@QAE@W4BundleID@@@Z 1000f0b6 f i WebCommonLib:RevisionsQuery.obj
 0001:0000e11e       ??1RequiredBundleRevision@@QAE@XZ 1000f11e f i WebCommonLib:RevisionsQuery.obj
 0001:0000e15c       ??0ShortChannelInfo@RevisionsQuery@@QAE@V?$basic_string@DU?$char_traits@D@std@@V?$allocator@D@2@@std@@00@Z 1000f15c f i WebCommonLib:RevisionsQuery.obj
 0001:0000e1ac       ?GetTime@@YA_KXZ           1000f1ac f   WebCommonLib:RevisionsQuery.obj
 0001:0000e1ba       ?GetRevisionsRequestTimeout@?A0x1881cb5c@@YAHXZ 1000f1ba f   WebCommonLib:RevisionsQuery.obj
 0001:0000e1d8       ?DefaultAutoUpdateURL@@YA?AV?$basic_string@DU?$char_traits@D@std@@V?$allocator@D@2@@std@@W4AutoUpdateURL@@@Z 1000f1d8 f   WebCommonLib:RevisionsQuery.obj
 0001:0000e292       ??0RevisionsQuery@@QAE@XZ  1000f292 f   WebCommonLib:RevisionsQuery.obj
 0001:0000e3bc       ??1RevisionsQuery@@QAE@XZ  1000f3bc f   WebCommonLib:RevisionsQuery.obj
 0001:0000e43f       ?Tick@RevisionsQuery@@QAEXAAUUnityWebStreamHeader@@@Z 1000f43f f   WebCommonLib:RevisionsQuery.obj
 0001:0000e86f       ?URLEscape@@YA?AV?$basic_string@DU?$char_traits@D@std@@V?$allocator@D@2@@std@@ABV12@@Z 1000f86f f   WebCommonLib:RevisionsQuery.obj
 0001:0000e963       ?PluginStartDownloadingData@RevisionsQuery@@QAEXABV?$basic_string@DU?$char_traits@D@std@@V?$allocator@D@2@@std@@00@Z 1000f963 f   WebCommonLib:RevisionsQuery.obj
 0001:0000ed0c       ?ValidatePlayerHash@RevisionsQuery@@QAE?AW4PlayerHashValidationResult@@ABV?$basic_string@DU?$char_traits@D@std@@V?$allocator@D@2@@std@@PBEI@Z 1000fd0c f   WebCommonLib:RevisionsQuery.obj
 0001:0000f050       ?UpdateRequiredPlayerVersion@RevisionsQuery@@AAEXAAURequiredBundleRevision@@ABUUnityWebStreamHeader@@@Z 10010050 f   WebCommonLib:RevisionsQuery.obj
 0001:0000f21b       ?UpdateDownloadBundleRevisionIfNeeded@RequiredBundleRevision@@QAEXAAVRevisionsQuery@@@Z 1001021b f   WebCommonLib:RevisionsQuery.obj
 0001:0000f6d3       ?IsReadyToLoad@RequiredBundleRevision@@QBE_NAAVRevisionsQuery@@@Z 100106d3 f   WebCommonLib:RevisionsQuery.obj
 0001:0000f79a       ?UpdateRequiredMonoVersion@RevisionsQuery@@AAEXAAURequiredBundleRevision@@0@Z 1001079a f   WebCommonLib:RevisionsQuery.obj
 0001:0000fbdb       ?GetMinMaxRequiredRevision@RevisionsQuery@@QAE_NW4BundleID@@ABV?$basic_string@DU?$char_traits@D@std@@V?$allocator@D@2@@std@@PAV34@2PAH3@Z 10010bdb f   WebCommonLib:RevisionsQuery.obj
 0001:0000fc8e       ?GetMinMaxRequiredRevisionInternal@RevisionsQuery@@AAEXW4BundleID@@ABV?$basic_string@DU?$char_traits@D@std@@V?$allocator@D@2@@std@@AAVMiniXMLFile@@PAV34@3PAH4@Z 10010c8e f   WebCommonLib:RevisionsQuery.obj
 0001:0001001f       ?GetAutoUpdateURL@RevisionsQuery@@QAE?BV?$basic_string@DU?$char_traits@D@std@@V?$allocator@D@2@@std@@W4AutoUpdateURL@@_N@Z 1001101f f   WebCommonLib:RevisionsQuery.obj
 0001:000100f0       ?SetAutoUpdateURL@RevisionsQuery@@QAEXABV?$basic_string@DU?$char_traits@D@std@@V?$allocator@D@2@@std@@@Z 100110f0 f   WebCommonLib:RevisionsQuery.obj
 0001:000101ee       ?VerifyAutoUpdateURL@RevisionsQuery@@QAEXXZ 100111ee f   WebCommonLib:RevisionsQuery.obj
 0001:000103ad       ??0?$set@V?$basic_string@DU?$char_traits@D@std@@V?$allocator@D@2@@std@@U?$less@V?$basic_string@DU?$char_traits@D@std@@V?$allocator@D@2@@std@@@2@V?$allocator@V?$basic_string@DU?$char_traits@D@std@@V?$allocator@D@2@@std@@@2@@std@@QAE@XZ 100113ad f i WebCommonLib:RevisionsQuery.obj
 0001:000103d8       ??1?$_Tree@V?$_Tset_traits@V?$basic_string@DU?$char_traits@D@std@@V?$allocator@D@2@@std@@U?$less@V?$basic_string@DU?$char_traits@D@std@@V?$allocator@D@2@@std@@@2@V?$allocator@V?$basic_string@DU?$char_traits@D@std@@V?$allocator@D@2@@std@@@2@$0A@@std@@@std@@QAE@XZ 100113d8 f i WebCommonLib:RevisionsQuery.obj
 0001:00010404       ?replace@?$basic_string@DU?$char_traits@D@std@@V?$allocator@D@2@@std@@QAEAAV12@IIPBDI@Z 10011404 f i WebCommonLib:RevisionsQuery.obj
 0001:00010539       ??E?$_Tree_const_iterator@V?$_Tree_val@V?$_Tset_traits@V?$basic_string@DU?$char_traits@D@std@@V?$allocator@D@2@@std@@U?$less@V?$basic_string@DU?$char_traits@D@std@@V?$allocator@D@2@@std@@@2@V?$allocator@V?$basic_string@DU?$char_traits@D@std@@V?$allocator@D@2@@std@@@2@$0A@@std@@@std@@@std@@QAEAAV01@XZ 10011539 f i WebCommonLib:RevisionsQuery.obj
 0001:0001056f       ?insert@?$basic_string@DU?$char_traits@D@std@@V?$allocator@D@2@@std@@QAEAAV12@IID@Z 1001156f f i WebCommonLib:RevisionsQuery.obj
 0001:000105ff       ?allocate@?$allocator@U_Node@?$_Tree_nod@V?$_Tset_traits@V?$basic_string@DU?$char_traits@D@std@@V?$allocator@D@2@@std@@U?$less@V?$basic_string@DU?$char_traits@D@std@@V?$allocator@D@2@@std@@@2@V?$allocator@V?$basic_string@DU?$char_traits@D@std@@V?$allocator@D@2@@std@@@2@$0A@@std@@@std@@@std@@QAEPAU_Node@?$_Tree_nod@V?$_Tset_traits@V?$basic_string@DU?$char_traits@D@std@@V?$allocator@D@2@@std@@U?$less@V?$basic_string@DU?$char_traits@D@std@@V?$allocator@D@2@@std@@@2@V?$allocator@V?$basic_string@DU?$char_traits@D@std@@V?$allocator@D@2@@std@@@2@$0A@@std@@@2@I@Z 100115ff f i WebCommonLib:RevisionsQuery.obj
 0001:00010637       ?_Erase@?$_Tree@V?$_Tset_traits@V?$basic_string@DU?$char_traits@D@std@@V?$allocator@D@2@@std@@U?$less@V?$basic_string@DU?$char_traits@D@std@@V?$allocator@D@2@@std@@@2@V?$allocator@V?$basic_string@DU?$char_traits@D@std@@V?$allocator@D@2@@std@@@2@$0A@@std@@@std@@IAEXPAU_Node@?$_Tree_nod@V?$_Tset_traits@V?$basic_string@DU?$char_traits@D@std@@V?$allocator@D@2@@std@@U?$less@V?$basic_string@DU?$char_traits@D@std@@V?$allocator@D@2@@std@@@2@V?$allocator@V?$basic_string@DU?$char_traits@D@std@@V?$allocator@D@2@@std@@@2@$0A@@std@@@2@@Z 10011637 f i WebCommonLib:RevisionsQuery.obj
 0001:00010679       ?_Lrotate@?$_Tree@V?$_Tset_traits@V?$basic_string@DU?$char_traits@D@std@@V?$allocator@D@2@@std@@U?$less@V?$basic_string@DU?$char_traits@D@std@@V?$allocator@D@2@@std@@@2@V?$allocator@V?$basic_string@DU?$char_traits@D@std@@V?$allocator@D@2@@std@@@2@$0A@@std@@@std@@IAEXPAU_Node@?$_Tree_nod@V?$_Tset_traits@V?$basic_string@DU?$char_traits@D@std@@V?$allocator@D@2@@std@@U?$less@V?$basic_string@DU?$char_traits@D@std@@V?$allocator@D@2@@std@@@2@V?$allocator@V?$basic_string@DU?$char_traits@D@std@@V?$allocator@D@2@@std@@@2@$0A@@std@@@2@@Z 10011679 f i WebCommonLib:RevisionsQuery.obj
 0001:000106bc       ?_Rrotate@?$_Tree@V?$_Tset_traits@V?$basic_string@DU?$char_traits@D@std@@V?$allocator@D@2@@std@@U?$less@V?$basic_string@DU?$char_traits@D@std@@V?$allocator@D@2@@std@@@2@V?$allocator@V?$basic_string@DU?$char_traits@D@std@@V?$allocator@D@2@@std@@@2@$0A@@std@@@std@@IAEXPAU_Node@?$_Tree_nod@V?$_Tset_traits@V?$basic_string@DU?$char_traits@D@std@@V?$allocator@D@2@@std@@U?$less@V?$basic_string@DU?$char_traits@D@std@@V?$allocator@D@2@@std@@@2@V?$allocator@V?$basic_string@DU?$char_traits@D@std@@V?$allocator@D@2@@std@@@2@$0A@@std@@@2@@Z 100116bc f i WebCommonLib:RevisionsQuery.obj
 0001:00010701       ?_Linsert@?$_Tree@V?$_Tset_traits@UShortChannelInfo@RevisionsQuery@@U?$less@UShortChannelInfo@RevisionsQuery@@@std@@V?$allocator@UShortChannelInfo@RevisionsQuery@@@4@$0A@@std@@@std@@QAE?AU?$pair@V?$_Tree_const_iterator@V?$_Tree_val@V?$_Tset_traits@UShortChannelInfo@RevisionsQuery@@U?$less@UShortChannelInfo@RevisionsQuery@@@std@@V?$allocator@UShortChannelInfo@RevisionsQuery@@@4@$0A@@std@@@std@@@std@@_N@2@PAU_Node@?$_Tree_nod@V?$_Tset_traits@UShortChannelInfo@RevisionsQuery@@U?$less@UShortChannelInfo@RevisionsQuery@@@std@@V?$allocator@UShortChannelInfo@RevisionsQuery@@@4@$0A@@std@@@2@_N@Z 10011701 f i WebCommonLib:RevisionsQuery.obj
 0001:000107e5       ?_Linsert@?$_Tree@V?$_Tset_traits@V?$basic_string@DU?$char_traits@D@std@@V?$allocator@D@2@@std@@U?$less@V?$basic_string@DU?$char_traits@D@std@@V?$allocator@D@2@@std@@@2@V?$allocator@V?$basic_string@DU?$char_traits@D@std@@V?$allocator@D@2@@std@@@2@$0A@@std@@@std@@QAE?AU?$pair@V?$_Tree_const_iterator@V?$_Tree_val@V?$_Tset_traits@V?$basic_string@DU?$char_traits@D@std@@V?$allocator@D@2@@std@@U?$less@V?$basic_string@DU?$char_traits@D@std@@V?$allocator@D@2@@std@@@2@V?$allocator@V?$basic_string@DU?$char_traits@D@std@@V?$allocator@D@2@@std@@@2@$0A@@std@@@std@@@std@@_N@2@PAU_Node@?$_Tree_nod@V?$_Tset_traits@V?$basic_string@DU?$char_traits@D@std@@V?$allocator@D@2@@std@@U?$less@V?$basic_string@DU?$char_traits@D@std@@V?$allocator@D@2@@std@@@2@V?$allocator@V?$basic_string@DU?$char_traits@D@std@@V?$allocator@D@2@@std@@@2@$0A@@std@@@2@_N@Z 100117e5 f i WebCommonLib:RevisionsQuery.obj
 0001:000108ca       ?_Insert@?$_Tree@V?$_Tset_traits@UShortChannelInfo@RevisionsQuery@@U?$less@UShortChannelInfo@RevisionsQuery@@@std@@V?$allocator@UShortChannelInfo@RevisionsQuery@@@4@$0A@@std@@@std@@IAE?AV?$_Tree_const_iterator@V?$_Tree_val@V?$_Tset_traits@UShortChannelInfo@RevisionsQuery@@U?$less@UShortChannelInfo@RevisionsQuery@@@std@@V?$allocator@UShortChannelInfo@RevisionsQuery@@@4@$0A@@std@@@std@@@2@_NPAU_Node@?$_Tree_nod@V?$_Tset_traits@UShortChannelInfo@RevisionsQuery@@U?$less@UShortChannelInfo@RevisionsQuery@@@std@@V?$allocator@UShortChannelInfo@RevisionsQuery@@@4@$0A@@std@@@2@1@Z 100118ca f i WebCommonLib:RevisionsQuery.obj
 0001:000109eb       ??R?$less@V?$basic_string@DU?$char_traits@D@std@@V?$allocator@D@2@@std@@@std@@QBE_NABV?$basic_string@DU?$char_traits@D@std@@V?$allocator@D@2@@1@0@Z 100119eb f i DownloadManager.obj
 0001:000109eb       ??R?$less@UShortChannelInfo@RevisionsQuery@@@std@@QBE_NABUShortChannelInfo@RevisionsQuery@@0@Z 100119eb f i WebCommonLib:RevisionsQuery.obj
 0001:00010a0a       ?_Insert@?$_Tree@V?$_Tset_traits@V?$basic_string@DU?$char_traits@D@std@@V?$allocator@D@2@@std@@U?$less@V?$basic_string@DU?$char_traits@D@std@@V?$allocator@D@2@@std@@@2@V?$allocator@V?$basic_string@DU?$char_traits@D@std@@V?$allocator@D@2@@std@@@2@$0A@@std@@@std@@IAE?AV?$_Tree_const_iterator@V?$_Tree_val@V?$_Tset_traits@V?$basic_string@DU?$char_traits@D@std@@V?$allocator@D@2@@std@@U?$less@V?$basic_string@DU?$char_traits@D@std@@V?$allocator@D@2@@std@@@2@V?$allocator@V?$basic_string@DU?$char_traits@D@std@@V?$allocator@D@2@@std@@@2@$0A@@std@@@std@@@2@_NPAU_Node@?$_Tree_nod@V?$_Tset_traits@V?$basic_string@DU?$char_traits@D@std@@V?$allocator@D@2@@std@@U?$less@V?$basic_string@DU?$char_traits@D@std@@V?$allocator@D@2@@std@@@2@V?$allocator@V?$basic_string@DU?$char_traits@D@std@@V?$allocator@D@2@@std@@@2@$0A@@std@@@2@1@Z 10011a0a f i WebCommonLib:RevisionsQuery.obj
 0001:00010b2f       ??$_Buynode@V?$basic_string@DU?$char_traits@D@std@@V?$allocator@D@2@@std@@@?$_Tree_val@V?$_Tset_traits@V?$basic_string@DU?$char_traits@D@std@@V?$allocator@D@2@@std@@U?$less@V?$basic_string@DU?$char_traits@D@std@@V?$allocator@D@2@@std@@@2@V?$allocator@V?$basic_string@DU?$char_traits@D@std@@V?$allocator@D@2@@std@@@2@$0A@@std@@@std@@QAEPAU_Node@?$_Tree_nod@V?$_Tset_traits@V?$basic_string@DU?$char_traits@D@std@@V?$allocator@D@2@@std@@U?$less@V?$basic_string@DU?$char_traits@D@std@@V?$allocator@D@2@@std@@@2@V?$allocator@V?$basic_string@DU?$char_traits@D@std@@V?$allocator@D@2@@std@@@2@$0A@@std@@@1@$$QAV?$basic_string@DU?$char_traits@D@std@@V?$allocator@D@2@@1@@Z 10011b2f f i WebCommonLib:RevisionsQuery.obj
 0001:00010ba0       ?GetCustomLogLocation@@YAPBDPBD@Z 10011ba0 f   WebCommonLib:Logger.obj
 0001:00010bb5       ??0Logger@@QAE@ABV?$basic_string@DU?$char_traits@D@std@@V?$allocator@D@2@@std@@@Z 10011bb5 f   WebCommonLib:Logger.obj
 0001:00010c54       ?Close@Logger@@QAEXXZ      10011c54 f   WebCommonLib:Logger.obj
 0001:00010c67       ?Log@Logger@@QAAXPBDZZ     10011c67 f   WebCommonLib:Logger.obj
 0001:00010c78       ?VLog@Logger@@QAEXPBDPAD@Z 10011c78 f   WebCommonLib:Logger.obj
 0001:00010d0f       ??0SimpleString@@QAE@PBDK@Z 10011d0f f   WebCommonLib:WebScripting.obj
 0001:00010d54       ??0SimpleString@@QAE@ABU0@@Z 10011d54 f   WebCommonLib:WebScripting.obj
 0001:00010d80       ??4SimpleString@@QAEXABU0@@Z 10011d80 f   WebCommonLib:WebScripting.obj
 0001:00010dbb       ??1SimpleString@@QAE@XZ    10011dbb f   WebCommonLib:WebScripting.obj
 0001:00010dca       ??0VariantArray@VariantValue@@QAE@HPBU1@@Z 10011dca f   WebCommonLib:WebScripting.obj
 0001:00010e47       ??_EVariantValue@@QAEPAXI@Z 10011e47 f i WebCommonLib:WebScripting.obj
 0001:00010e7d       ??0VariantArray@VariantValue@@QAE@ABU01@@Z 10011e7d f   WebCommonLib:WebScripting.obj
 0001:00010f19       ??4VariantArray@VariantValue@@QAEXABU01@@Z 10011f19 f   WebCommonLib:WebScripting.obj
 0001:00010fcc       ??1VariantArray@VariantValue@@QAE@XZ 10011fcc f   WebCommonLib:WebScripting.obj
 0001:00010fd9       ??1MiniXMLFile@@QAE@XZ     10011fd9 f   WebCommonLib:MiniXmlFile.obj
 0001:00010ff9       ?Parse@MiniXMLFile@@QAE_NPBDI@Z 10011ff9 f   WebCommonLib:MiniXmlFile.obj
 0001:00011067       ?Parse@MiniXMLFile@@QAE_NABV?$basic_string@DU?$char_traits@D@std@@V?$allocator@D@2@@std@@@Z 10012067 f   WebCommonLib:MiniXmlFile.obj
 0001:0001116d       ?GetStringValue@MiniXMLFile@@QAE?AV?$basic_string@DU?$char_traits@D@std@@V?$allocator@D@2@@std@@ABV23@PBX@Z 1001216d f   WebCommonLib:MiniXmlFile.obj
 0001:000111f7       ?GetArrayCount@MiniXMLFile@@QAEHABV?$basic_string@DU?$char_traits@D@std@@V?$allocator@D@2@@std@@PBX@Z 100121f7 f   WebCommonLib:MiniXmlFile.obj
 0001:0001126a       ?GetArrayElementDict@MiniXMLFile@@QAEPBXABV?$basic_string@DU?$char_traits@D@std@@V?$allocator@D@2@@std@@HPBX@Z 1001226a f   WebCommonLib:MiniXmlFile.obj
 0001:000112e2       ?GetArrayElementString@MiniXMLFile@@QAE?AV?$basic_string@DU?$char_traits@D@std@@V?$allocator@D@2@@std@@ABV23@HPBX@Z 100122e2 f   WebCommonLib:MiniXmlFile.obj
 0001:00011391       ?OpenClient@PipeRoot@@QAE_NPB_W@Z 10012391 f i WebCommonLib:UpdaterProxy.obj
 0001:000113fd       ?Completed@UpdateOperation@UpdaterProxy@@SA_NABV?$ResourcePtr@VUpdateOperation@UpdaterProxy@@@@@Z 100123fd f i WebCommonLib:UpdaterProxy.obj
 0001:00011474       ?Open@UpdateOperation@UpdaterProxy@@QAE_NABV?$Handle@PAXVFileHandleRoot@@$0PPPPPPPP@@@@Z 10012474 f   WebCommonLib:UpdaterProxy.obj
 0001:000114e1       ?Close@UpdateOperation@UpdaterProxy@@QAEXXZ 100124e1 f   WebCommonLib:UpdaterProxy.obj
 0001:000114f4       ?BeginUpdate@UpdaterProxy@@QAEIPB_W_N00PAUHWND__@@1@Z 100124f4 f   WebCommonLib:UpdaterProxy.obj
 0001:000118fd       ?UpdaterThread@?A0x07a6028f@@YGKPAX@Z 100128fd f   WebCommonLib:UpdaterProxy.obj
 0001:00011ad9       ?LaunchUpdater@UpdaterProxy@@AAE_NPAUHWND__@@_N@Z 10012ad9 f   WebCommonLib:UpdaterProxy.obj
 0001:00011e7f       ?GetUpdateStatus@UpdaterProxy@@QAE?AW4UpdateStatus@1@I@Z 10012e7f f   WebCommonLib:UpdaterProxy.obj
 0001:00011eb3       ?UpdateOperations@UpdaterProxy@@AAEXXZ 10012eb3 f   WebCommonLib:UpdaterProxy.obj
 0001:0001200d       ?Create@?$ResourceRoot@VPipeRoot@@@@SA?AV?$ResourcePtr@VPipeRoot@@@@XZ 1001300d f i WebCommonLib:UpdaterProxy.obj
 0001:0001203d       ?find@?$_Tree@V?$_Tmap_traits@IW4UpdateStatus@UpdaterProxy@@U?$less@I@std@@V?$allocator@U?$pair@$$CBIW4UpdateStatus@UpdaterProxy@@@std@@@4@$0A@@std@@@std@@QAE?AV?$_Tree_iterator@V?$_Tree_val@V?$_Tmap_traits@IW4UpdateStatus@UpdaterProxy@@U?$less@I@std@@V?$allocator@U?$pair@$$CBIW4UpdateStatus@UpdaterProxy@@@std@@@4@$0A@@std@@@std@@@2@ABI@Z 1001303d f i WebCommonLib:UpdaterProxy.obj
 0001:0001203d       ?find@?$_Tree@V?$_Tmap_traits@KPAVTimer@?A0xcd4663a9@@U?$less@K@std@@V?$allocator@U?$pair@$$CBKPAVTimer@?A0xcd4663a9@@@std@@@4@$0A@@std@@@std@@QAE?AV?$_Tree_iterator@V?$_Tree_val@V?$_Tmap_traits@KPAVTimer@?A0xcd4663a9@@U?$less@K@std@@V?$allocator@U?$pair@$$CBKPAVTimer@?A0xcd4663a9@@@std@@@4@$0A@@std@@@std@@@2@ABK@Z 1001303d f i WebCommonLib:PluginManager.obj
 0001:0001208c       ?append@?$basic_string@_WU?$char_traits@_W@std@@V?$allocator@_W@2@@std@@QAEAAV12@PB_WI@Z 1001308c f i WebCommonLib:UpdaterProxy.obj
 0001:0001212d       ?_Buynode@?$_List_val@V?$ResourcePtr@VUpdateOperation@UpdaterProxy@@@@V?$allocator@V?$ResourcePtr@VUpdateOperation@UpdaterProxy@@@@@std@@@std@@QAEPAU_Node@?$_List_nod@V?$ResourcePtr@VUpdateOperation@UpdaterProxy@@@@V?$allocator@V?$ResourcePtr@VUpdateOperation@UpdaterProxy@@@@@std@@@2@PAU342@0ABV?$ResourcePtr@VUpdateOperation@UpdaterProxy@@@@@Z 1001312d f i WebCommonLib:UpdaterProxy.obj
 0001:00012192       ?allocate@?$allocator@U_Node@?$_List_nod@PAVDownloaderNetscape@@V?$allocator@PAVDownloaderNetscape@@@std@@@std@@@std@@QAEPAU_Node@?$_List_nod@PAVDownloaderNetscape@@V?$allocator@PAVDownloaderNetscape@@@std@@@2@I@Z 10013192 f i DownloadManager.obj
 0001:00012192       ?allocate@?$allocator@U_Node@?$_List_nod@V?$ResourcePtr@VUpdateOperation@UpdaterProxy@@@@V?$allocator@V?$ResourcePtr@VUpdateOperation@UpdaterProxy@@@@@std@@@std@@@std@@QAEPAU_Node@?$_List_nod@V?$ResourcePtr@VUpdateOperation@UpdaterProxy@@@@V?$allocator@V?$ResourcePtr@VUpdateOperation@UpdaterProxy@@@@@std@@@2@I@Z 10013192 f i WebCommonLib:UpdaterProxy.obj
 0001:00012192       ?allocate@?$allocator@U_Node@?$_List_nod@VPortRange@@V?$allocator@VPortRange@@@std@@@std@@@std@@QAEPAU_Node@?$_List_nod@VPortRange@@V?$allocator@VPortRange@@@std@@@2@I@Z 10013192 f i DownloadManager.obj
 0001:000121ca       ?append@?$basic_string@_WU?$char_traits@_W@std@@V?$allocator@_W@2@@std@@QAEAAV12@ABV12@II@Z 100131ca f i WebCommonLib:UpdaterProxy.obj
 0001:0001226d       ?_Linsert@?$_Tree@V?$_Tmap_traits@IW4UpdateStatus@UpdaterProxy@@U?$less@I@std@@V?$allocator@U?$pair@$$CBIW4UpdateStatus@UpdaterProxy@@@std@@@4@$0A@@std@@@std@@QAE?AU?$pair@V?$_Tree_iterator@V?$_Tree_val@V?$_Tmap_traits@IW4UpdateStatus@UpdaterProxy@@U?$less@I@std@@V?$allocator@U?$pair@$$CBIW4UpdateStatus@UpdaterProxy@@@std@@@4@$0A@@std@@@std@@@std@@_N@2@PAU_Node@?$_Tree_nod@V?$_Tmap_traits@IW4UpdateStatus@UpdaterProxy@@U?$less@I@std@@V?$allocator@U?$pair@$$CBIW4UpdateStatus@UpdaterProxy@@@std@@@4@$0A@@std@@@2@_N@Z 1001326d f i WebCommonLib:UpdaterProxy.obj
 0001:0001226d       ?_Linsert@?$_Tree@V?$_Tmap_traits@KPAVTimer@?A0xcd4663a9@@U?$less@K@std@@V?$allocator@U?$pair@$$CBKPAVTimer@?A0xcd4663a9@@@std@@@4@$0A@@std@@@std@@QAE?AU?$pair@V?$_Tree_iterator@V?$_Tree_val@V?$_Tmap_traits@KPAVTimer@?A0xcd4663a9@@U?$less@K@std@@V?$allocator@U?$pair@$$CBKPAVTimer@?A0xcd4663a9@@@std@@@4@$0A@@std@@@std@@@std@@_N@2@PAU_Node@?$_Tree_nod@V?$_Tmap_traits@KPAVTimer@?A0xcd4663a9@@U?$less@K@std@@V?$allocator@U?$pair@$$CBKPAVTimer@?A0xcd4663a9@@@std@@@4@$0A@@std@@@2@_N@Z 1001326d f i WebCommonLib:PluginManager.obj
 0001:00012333       ?_Insert@?$_Tree@V?$_Tmap_traits@IW4UpdateStatus@UpdaterProxy@@U?$less@I@std@@V?$allocator@U?$pair@$$CBIW4UpdateStatus@UpdaterProxy@@@std@@@4@$0A@@std@@@std@@IAE?AV?$_Tree_iterator@V?$_Tree_val@V?$_Tmap_traits@IW4UpdateStatus@UpdaterProxy@@U?$less@I@std@@V?$allocator@U?$pair@$$CBIW4UpdateStatus@UpdaterProxy@@@std@@@4@$0A@@std@@@std@@@2@_NPAU_Node@?$_Tree_nod@V?$_Tmap_traits@IW4UpdateStatus@UpdaterProxy@@U?$less@I@std@@V?$allocator@U?$pair@$$CBIW4UpdateStatus@UpdaterProxy@@@std@@@4@$0A@@std@@@2@1@Z 10013333 f i WebCommonLib:UpdaterProxy.obj
 0001:00012333       ?_Insert@?$_Tree@V?$_Tmap_traits@KPAVTimer@?A0xcd4663a9@@U?$less@K@std@@V?$allocator@U?$pair@$$CBKPAVTimer@?A0xcd4663a9@@@std@@@4@$0A@@std@@@std@@IAE?AV?$_Tree_iterator@V?$_Tree_val@V?$_Tmap_traits@KPAVTimer@?A0xcd4663a9@@U?$less@K@std@@V?$allocator@U?$pair@$$CBKPAVTimer@?A0xcd4663a9@@@std@@@4@$0A@@std@@@std@@@2@_NPAU_Node@?$_Tree_nod@V?$_Tmap_traits@KPAVTimer@?A0xcd4663a9@@U?$less@K@std@@V?$allocator@U?$pair@$$CBKPAVTimer@?A0xcd4663a9@@@std@@@4@$0A@@std@@@2@1@Z 10013333 f i WebCommonLib:PluginManager.obj
 0001:0001244c       ??$_Buynode@U?$pair@$$CBIW4UpdateStatus@UpdaterProxy@@@std@@@?$_Tree_val@V?$_Tmap_traits@IW4UpdateStatus@UpdaterProxy@@U?$less@I@std@@V?$allocator@U?$pair@$$CBIW4UpdateStatus@UpdaterProxy@@@std@@@4@$0A@@std@@@std@@QAEPAU_Node@?$_Tree_nod@V?$_Tmap_traits@IW4UpdateStatus@UpdaterProxy@@U?$less@I@std@@V?$allocator@U?$pair@$$CBIW4UpdateStatus@UpdaterProxy@@@std@@@4@$0A@@std@@@1@$$QAU?$pair@$$CBIW4UpdateStatus@UpdaterProxy@@@1@@Z 1001344c f i WebCommonLib:UpdaterProxy.obj
 0001:0001244c       ??$_Buynode@U?$pair@KPAVTimer@?A0xcd4663a9@@@std@@@?$_Tree_val@V?$_Tmap_traits@KPAVTimer@?A0xcd4663a9@@U?$less@K@std@@V?$allocator@U?$pair@$$CBKPAVTimer@?A0xcd4663a9@@@std@@@4@$0A@@std@@@std@@QAEPAU_Node@?$_Tree_nod@V?$_Tmap_traits@KPAVTimer@?A0xcd4663a9@@U?$less@K@std@@V?$allocator@U?$pair@$$CBKPAVTimer@?A0xcd4663a9@@@std@@@4@$0A@@std@@@1@$$QAU?$pair@KPAVTimer@?A0xcd4663a9@@@1@@Z 1001344c f i WebCommonLib:PluginManager.obj
 0001:000124bb       ??0UnityLoader@@QAE@AAVPluginInstance@@@Z 100134bb f   WebCommonLib:UnityLoader.obj
 0001:000125e9       ?Load@UnityLoader@@QAE_NPAUHINSTANCE__@@AAV?$basic_string@DU?$char_traits@D@std@@V?$allocator@D@2@@std@@@Z 100135e9 f   WebCommonLib:UnityLoader.obj
 0001:000127dd       ?CopyToTempPath@UnityLoader@@AAE_NAAV?$basic_string@DU?$char_traits@D@std@@V?$allocator@D@2@@std@@@Z 100137dd f   WebCommonLib:UnityLoader.obj
 0001:00012aa8       ?LoadUnityDLL@UnityLoader@@AAE_NAAV?$basic_string@DU?$char_traits@D@std@@V?$allocator@D@2@@std@@@Z 10013aa8 f   WebCommonLib:UnityLoader.obj
 0001:00012cb2       ??1UnityLoader@@QAE@XZ     10013cb2 f   WebCommonLib:UnityLoader.obj
 0001:00012d8b       ??0?$basic_string@_WU?$char_traits@_W@std@@V?$allocator@_W@2@@std@@QAE@$$QAV01@@Z 10013d8b f i WebCommonLib:UnityLoader.obj
 0001:00012db0       ?assign@?$basic_string@_WU?$char_traits@_W@std@@V?$allocator@_W@2@@std@@QAEAAV12@$$QAV12@@Z 10013db0 f i WebCommonLib:UnityLoader.obj
 0001:00012e0c       ?GetHomePath@@YA?AV?$basic_string@DU?$char_traits@D@std@@V?$allocator@D@2@@std@@PAUHKEY__@@@Z 10013e0c f   WebCommonLib:Pluginfor360Browser.obj
 0001:00012e87       ?UseGreenVersionfor360Browser@@YA_NXZ 10013e87 f   WebCommonLib:Pluginfor360Browser.obj
 0001:00012f30       ?ConvertUnityPathName@@YAXPBDPA_WH@Z 10013f30 f   WebCommonLib:PathUnicodeConversion.obj
 0001:00012f5f       ?Read@PipeRoot@@QAE?AW4Result@1@PAXKK@Z 10013f5f f   WebCommonLib:PipeRoot.obj
 0001:0001300b       ?Write@PipeRoot@@QAE?AW4Result@1@PBXKK@Z 1001400b f   WebCommonLib:PipeRoot.obj
 0001:000130b9       ?ConnectClient@PipeRoot@@QAE?AW4Result@1@K@Z 100140b9 f   WebCommonLib:PipeRoot.obj
 0001:0001315a       ?Close@PipeRoot@@QAEXXZ    1001415a f   WebCommonLib:PipeRoot.obj
 0001:000131fe       ?OpenServer@PipeRoot@@AAE_NPB_W0KKK@Z 100141fe f   WebCommonLib:PipeRoot.obj
 0001:000132b8       ?GetGlobalPreference@@YA?AV?$basic_string@DU?$char_traits@D@std@@V?$allocator@D@2@@std@@PBD@Z 100142b8 f   WebCommonLib:GlobalPreferences.obj
 0001:0001333c       ?SetGlobalPreference@@YAXPBDABV?$basic_string@DU?$char_traits@D@std@@V?$allocator@D@2@@std@@@Z 1001433c f   WebCommonLib:GlobalPreferences.obj
 0001:000133a5       ?fopen_inmem_func@@YAPAXPAXPBDH@Z 100143a5 f   WebCommonLib:Decompressor.obj
 0001:000133b1       ?fread_inmem_func@@YAKPAX00K@Z 100143b1 f   WebCommonLib:Decompressor.obj
 0001:000133eb       ?ftell_inmem_func@@YAJPAX0@Z 100143eb f   WebCommonLib:Decompressor.obj
 0001:000133f6       ?fseek_inmem_func@@YAJPAX0KH@Z 100143f6 f   WebCommonLib:Decompressor.obj
 0001:0001344a       ?fclose_inmem_func@@YAHPAX0@Z 1001444a f   WebCommonLib:Decompressor.obj
 0001:0001364b       ?Decompress@decomp@@YA_NPBXIABV?$basic_string@DU?$char_traits@D@std@@V?$allocator@D@2@@std@@@Z 1001464b f   WebCommonLib:Decompressor.obj
 0001:00013726       ?CreateFolderWide@fileutils@@YA_NABV?$basic_string@_WU?$char_traits@_W@std@@V?$allocator@_W@2@@std@@@Z 10014726 f   WebCommonLib:WebFileUtilities.obj
 0001:000137a1       ?CreateFolder@fileutils@@YA_NABV?$basic_string@DU?$char_traits@D@std@@V?$allocator@D@2@@std@@@Z 100147a1 f   WebCommonLib:WebFileUtilities.obj
 0001:000137ea       ?CreateFolderRecursive@fileutils@@YA_NABV?$basic_string@DU?$char_traits@D@std@@V?$allocator@D@2@@std@@@Z 100147ea f   WebCommonLib:WebFileUtilities.obj
 0001:0001389d       ?GetBaseTempFolder@fileutils@@YA?AV?$basic_string@DU?$char_traits@D@std@@V?$allocator@D@2@@std@@XZ 1001489d f   WebCommonLib:WebFileUtilities.obj
 0001:0001391b       ?RemoveFolderRecursiveWide@fileutils@@YA_NABV?$basic_string@_WU?$char_traits@_W@std@@V?$allocator@_W@2@@std@@@Z 1001491b f   WebCommonLib:WebFileUtilities.obj
 0001:00013b2a       ?RemoveFolderRecursive@fileutils@@YA_NABV?$basic_string@DU?$char_traits@D@std@@V?$allocator@D@2@@std@@_N@Z 10014b2a f   WebCommonLib:WebFileUtilities.obj
 0001:00013b75       ?find@?$basic_string@_WU?$char_traits@_W@std@@V?$allocator@_W@2@@std@@QBEIPB_WII@Z 10014b75 f i WebCommonLib:WebFileUtilities.obj
 0001:00013c21       ??$?H_WU?$char_traits@_W@std@@V?$allocator@_W@1@@std@@YA?AV?$basic_string@_WU?$char_traits@_W@std@@V?$allocator@_W@2@@0@ABV10@_W@Z 10014c21 f i WebCommonLib:WebFileUtilities.obj
 0001:00013c66       ??$?H_WU?$char_traits@_W@std@@V?$allocator@_W@1@@std@@YA?AV?$basic_string@_WU?$char_traits@_W@std@@V?$allocator@_W@2@@0@ABV10@PB_W@Z 10014c66 f i WebCommonLib:WebFileUtilities.obj
 0001:00013cbf       ?reserve@?$basic_string@_WU?$char_traits@_W@std@@V?$allocator@_W@2@@std@@QAEXI@Z 10014cbf f i WebCommonLib:WebFileUtilities.obj
 0001:00013cf8       ?UTF8ToWide@@YAXPBDPA_WH@Z 10014cf8 f   WebCommonLib:WinUnicode.obj
 0001:00013e03       ?AppendPathName@@YA?AV?$basic_string@DU?$char_traits@D@std@@V?$allocator@D@2@@std@@ABV12@0@Z 10014e03 f   WebCommonLib:PathNameUtility.obj
 0001:00013e1b       ?append@?$basic_string@DU?$char_traits@D@std@@V?$allocator@D@2@@std@@QAEAAV12@V?$_String_const_iterator@DU?$char_traits@D@std@@V?$allocator@D@2@@2@0@Z 10014e1b f i WebCommonLib:PathNameUtility.obj
 0001:00013e96       ??_GImageDecoder@@UAEPAXI@Z 10014e96 f i WebCommonLib:ImageConversionCore.obj
 0001:00013e96       ??_EImageDecoder@@UAEPAXI@Z 10014e96 f i  CIL library: CIL module
 0001:00013eb6       ?MemoryReadFunc@ImageDecoder@@KAIPAXPAEI@Z 10014eb6 f   WebCommonLib:ImageConversionCore.obj
 0001:00013ee3       ?SetReadFunc@ImageDecoder@@UAEXPAXP6AI0PAEI@Z@Z 10014ee3 f   WebCommonLib:ImageConversionCore.obj
 0001:00013efb       ??_GPngDecoder@@UAEPAXI@Z  10014efb f i WebCommonLib:ImageConversionCore.obj
 0001:00013efb       ??_EPngDecoder@@UAEPAXI@Z  10014efb f i  CIL library: CIL module
 0001:00013f1a       ??1PngDecoder@@UAE@XZ      10014f1a f   WebCommonLib:ImageConversionCore.obj
 0001:00013f30       ?Cleanup@PngDecoder@@AAEXXZ 10014f30 f   WebCommonLib:ImageConversionCore.obj
 0001:00013f51       ?Tick@Download@@UAEXXZ     10014f51 f   DownloadManager.obj
 0001:00013f51       ?Cancel@Download@@UAEXXZ   10014f51 f   DownloadManager.obj
 0001:00013f51       ?pluginInvalidate@@YAXPAUNPObject@@@Z 10014f51 f   NetscapeScriptablePlugin.obj
 0001:00013f7f       ?InitDecoder@PngDecoder@@EAEXXZ 10014f7f f   WebCommonLib:ImageConversionCore.obj
 0001:00014045       ?DecodePixelsImpl@PngDecoder@@EAEXPAEI_NW4TextureFormat@@@Z 10015045 f   WebCommonLib:ImageConversionCore.obj
 0001:00014363       ??$_Assign@PBE@?$basic_string@DU?$char_traits@D@std@@V?$allocator@D@2@@std@@QAEAAV01@PBE0Uinput_iterator_tag@1@@Z 10015363 f i WebCommonLib:UnityWebStreamHeader.obj
 0001:000143ea       ??$_Construct@PBE@?$basic_string@DU?$char_traits@D@std@@V?$allocator@D@2@@std@@QAEXPBE0Uforward_iterator_tag@1@@Z 100153ea f i WebCommonLib:UnityWebStreamHeader.obj
 0001:00014453       ?VerifySignature@@YA_NV?$basic_string@DU?$char_traits@D@std@@V?$allocator@D@2@@std@@0H@Z 10015453 f   WebCommonLib:Verification.obj
 0001:0001462b       ?GenerateHash@@YA?AV?$basic_string@DU?$char_traits@D@std@@V?$allocator@D@2@@std@@PBEI@Z 1001562b f   WebCommonLib:Verification.obj
 0001:0001474f       _ezxml_child               1001574f f   WebCommonLib:ezxml.obj
 0001:0001477a       _ezxml_err                 1001577a f   WebCommonLib:ezxml.obj
 0001:000147ca       _ezxml_decode              100157ca f   WebCommonLib:ezxml.obj
 0001:00014a8a       _ezxml_open_tag            10015a8a f   WebCommonLib:ezxml.obj
 0001:00014abc       _ezxml_char_content        10015abc f   WebCommonLib:ezxml.obj
 0001:00014b7e       _ezxml_close_tag           10015b7e f   WebCommonLib:ezxml.obj
 0001:00014bc3       _ezxml_ent_ok              10015bc3 f   WebCommonLib:ezxml.obj
 0001:00014c57       _ezxml_proc_inst           10015c57 f   WebCommonLib:ezxml.obj
 0001:00014e44       _ezxml_internal_dtd        10015e44 f   WebCommonLib:ezxml.obj
 0001:0001537a       _ezxml_str2utf8            1001637a f   WebCommonLib:ezxml.obj
 0001:00015533       _ezxml_free_attr           10016533 f   WebCommonLib:ezxml.obj
 0001:0001559f       _ezxml_parse_str           1001659f f   WebCommonLib:ezxml.obj
 0001:00015c77       _ezxml_free                10016c77 f   WebCommonLib:ezxml.obj
 0001:00015ddf       _ezxml_add_child           10016ddf f   WebCommonLib:ezxml.obj
 0001:00015eeb       _IsCurrentUserLocalAdmin   10016eeb f   WebCommonLib:IsUserAdmin.obj
 0001:000162b1       ?DetectProcessIntegrityLevel@@YAKPAXAAW4ExecutionIntegrityLevel@@@Z 100172b1 f   WebCommonLib:IsUserAdmin.obj
 0001:000163e1       ?Initialize@Updater@@QAE_NXZ 100173e1 f   WebCommonLib:Updater.obj
 0001:00016583       ?ContinueWithHandshake@Updater@@AAE_NV?$ResourcePtr@VPipeRoot@@@@@Z 10017583 f   WebCommonLib:Updater.obj
 0001:00016652       ?Run@Updater@@QAEHXZ       10017652 f   WebCommonLib:Updater.obj
 0001:0001686c       ?MessageTrampoline@Updater@@CGKPAX@Z 1001786c f   WebCommonLib:Updater.obj
 0001:000168a8       ?OnUpdateMessage@Updater@@AAEXABUUpdateMessageHeader@@ABV?$UpdateRequestBody@$00@@@Z 100178a8 f   WebCommonLib:Updater.obj
 0001:00016969       ?PerformUpdate@Updater@@AAE_NIABV?$UpdateRequestBody@$00@@@Z 10017969 f   WebCommonLib:Updater.obj
 0001:00016b47       ?GetFileTransactionSupport@Updater@@ABE_NPB_WPAX@Z 10017b47 f   WebCommonLib:Updater.obj
 0001:00016b8a       ?UpdateFile@Updater@@ABE_NIPB_W0W4Flags@UpdateItem@@PAX@Z 10017b8a f   WebCommonLib:Updater.obj
 0001:00016d80       ?UpdateSubfolder@Updater@@ABE_NIPB_W0W4Flags@UpdateItem@@PAX@Z 10017d80 f   WebCommonLib:Updater.obj
 0001:00016f43       ?CopyFileW@Updater@@ABE_NIPB_W0KPAX@Z 10017f43 f   WebCommonLib:Updater.obj
 0001:00016f7d       ?MoveFileW@Updater@@ABE_NIPB_W0KPAX@Z 10017f7d f   WebCommonLib:Updater.obj
 0001:00016fb4       ?CreateDirectoryW@Updater@@ABE_NIPB_W_NPAX@Z 10017fb4 f   WebCommonLib:Updater.obj
 0001:000170d3       ?DeleteDirectory@Updater@@ABE?AW4DeleteDirectoryResult@1@IPB_WPAX@Z 100180d3 f   WebCommonLib:Updater.obj
 0001:000172f9       ??0CPUInfo@@QAE@XZ         100182f9 f   WebCommonLib:CPUInfo.obj
 0001:0001742e       ?internalOpenKey@?A0xa81d974f@@YAPAUHKEY__@@PAU2@PB_W_N@Z 1001842e f   WebCommonLib:Registry.obj
 0001:00017471       ?internalGetString@?A0xa81d974f@@YA_NPAUHKEY__@@PB_W1AAV?$basic_string@_WU?$char_traits@_W@std@@V?$allocator@_W@2@@std@@_N@Z 10018471 f   WebCommonLib:Registry.obj
 0001:0001757a       ?getString@registry@@YA?AV?$basic_string@DU?$char_traits@D@std@@V?$allocator@D@2@@std@@ABV23@00_N@Z 1001857a f   WebCommonLib:Registry.obj
 0001:00017648       ?getString@registry@@YA?AV?$basic_string@_WU?$char_traits@_W@std@@V?$allocator@_W@2@@std@@PB_W00_N@Z 10018648 f   WebCommonLib:Registry.obj
 0001:000176e6       ?setString@registry@@YA_NABV?$basic_string@DU?$char_traits@D@std@@V?$allocator@D@2@@std@@00_N@Z 100186e6 f   WebCommonLib:Registry.obj
 0001:000177d6       ??$ConvertWideToUTF8String@V?$allocator@_W@std@@V?$allocator@D@2@@@YAXABV?$basic_string@_WU?$char_traits@_W@std@@V?$allocator@_W@2@@std@@AAV?$basic_string@DU?$char_traits@D@std@@V?$allocator@D@2@@1@@Z 100187d6 f i WebCommonLib:Registry.obj
 0001:00017806       ??$_Construct@PA_W@?$basic_string@_WU?$char_traits@_W@std@@V?$allocator@_W@2@@std@@QAEXPA_W0Uforward_iterator_tag@1@@Z 10018806 f i WebCommonLib:Registry.obj
 0001:00017873       ??1length_error@std@@UAE@XZ 10018873 f i libcpmt:xthrow.obj
 0001:00017873       ??1out_of_range@std@@UAE@XZ 10018873 f i libcpmt:xthrow.obj
 0001:00017878       ??0logic_error@std@@QAE@ABV01@@Z 10018878 f i libcpmt:xthrow.obj
 0001:00017895       ?_Xlength_error@std@@YAXPBD@Z 10018895 f   libcpmt:xthrow.obj
 0001:000178c5       ??0length_error@std@@QAE@ABV01@@Z 100188c5 f i libcpmt:xthrow.obj
 0001:000178e2       ?_Xout_of_range@std@@YAXPBD@Z 100188e2 f   libcpmt:xthrow.obj
 0001:00017912       ??0out_of_range@std@@QAE@ABV01@@Z 10018912 f i libcpmt:xthrow.obj
 0001:0001792f       ??_Eout_of_range@std@@UAEPAXI@Z 1001892f f i libcpmt:xthrow.obj
 0001:0001792f       ??_Elogic_error@std@@UAEPAXI@Z 1001892f f i libcpmt:xthrow.obj
 0001:0001792f       ??_Gout_of_range@std@@UAEPAXI@Z 1001892f f i libcpmt:xthrow.obj
 0001:0001792f       ??_Glogic_error@std@@UAEPAXI@Z 1001892f f i libcpmt:xthrow.obj
 0001:0001792f       ??_Glength_error@std@@UAEPAXI@Z 1001892f f i libcpmt:xthrow.obj
 0001:0001792f       ??_Elength_error@std@@UAEPAXI@Z 1001892f f i libcpmt:xthrow.obj
 0001:00017950       ??_U@YAPAXI@Z              10018950 f   libcpmt:newaop.obj
 0001:00017960       _memcpy                    10018960 f   LIBCMT:memcpy.obj
 0001:00017cc1       ??0_LocaleUpdate@@QAE@PAUlocaleinfo_struct@@@Z 10018cc1 f i LIBCMT:strnicmp.obj
 0001:00017d48       __strnicmp_l               10018d48 f   LIBCMT:strnicmp.obj
 0001:00017e2a       __strnicmp                 10018e2a f   LIBCMT:strnicmp.obj
 0001:00017e7d       ??0exception@std@@QAE@ABQBDH@Z 10018e7d f   LIBCMT:stdexcpt.obj
 0001:00017e9a       ?what@exception@std@@UBEPBDXZ 10018e9a f   LIBCMT:stdexcpt.obj
 0001:00017ea7       ?_Copy_str@exception@std@@AAEXPBD@Z 10018ea7 f   LIBCMT:stdexcpt.obj
 0001:00017ee7       ?_Tidy@exception@std@@AAEXXZ 10018ee7 f   LIBCMT:stdexcpt.obj
 0001:00017f05       ??0exception@std@@QAE@ABQBD@Z 10018f05 f   LIBCMT:stdexcpt.obj
 0001:00017f2c       ??4exception@std@@QAEAAV01@ABV01@@Z 10018f2c f   LIBCMT:stdexcpt.obj
 0001:00017f61       ??1exception@std@@UAE@XZ   10018f61 f   LIBCMT:stdexcpt.obj
 0001:00017f6c       ??_Eexception@std@@UAEPAXI@Z 10018f6c f i LIBCMT:stdexcpt.obj
 0001:00017f6c       ??_Gexception@std@@UAEPAXI@Z 10018f6c f i LIBCMT:stdexcpt.obj
 0001:00017f93       ??0exception@std@@QAE@ABV01@@Z 10018f93 f   LIBCMT:stdexcpt.obj
 0001:00017fc0       _memmove                   10018fc0 f   LIBCMT:memmove.obj
 0001:00018321       _memcmp                    10019321 f   LIBCMT:memcmp.obj
 0001:00019880       _strlen                    1001a880 f   LIBCMT:strlen.obj
 0001:00019910       _memchr                    1001a910 f   LIBCMT:memchr.obj
 0001:00019a73       ___onexitinit              1001aa73 f   LIBCMT:onexit.obj
 0001:00019aa4       __onexit                   1001aaa4 f   LIBCMT:onexit.obj
 0001:00019ae0       _atexit                    1001aae0 f   LIBCMT:onexit.obj
 0001:00019af7       __tolower_l                1001aaf7 f   LIBCMT:tolower.obj
 0001:00019c0c       _tolower                   1001ac0c f   LIBCMT:tolower.obj
 0001:00019c38       ??_V@YAXPAX@Z              1001ac38 f   LIBCMT:delete2.obj
 0001:00019c43       ??3@YAXPAX@Z               1001ac43 f   LIBCMT:delete.obj
 0001:00019c4e       ??1type_info@@UAE@XZ       1001ac4e f   LIBCMT:typinfo.obj
 0001:00019c5e       ??_Etype_info@@UAEPAXI@Z   1001ac5e f i LIBCMT:typinfo.obj
 0001:00019c5e       ??_Gtype_info@@UAEPAXI@Z   1001ac5e f i LIBCMT:typinfo.obj
 0001:00019c7f       ??8type_info@@QBE_NABV0@@Z 1001ac7f f   LIBCMT:typinfo.obj
 0001:00019c9f       ??2@YAPAXI@Z               1001ac9f f   LIBCMT:new.obj
 0001:00019d1f       _wcslen                    1001ad1f f   LIBCMT:wcslen.obj
 0001:00019d40       _strstr                    1001ad40 f   LIBCMT:strstr.obj
 0001:00019dc6       __purecall                 1001adc6 f   LIBCMT:purevirt.obj
 0001:00019df0       _memset                    1001adf0 f   LIBCMT:memset.obj
 0001:00019e6a       ___ascii_stricmp           1001ae6a f   LIBCMT:stricmp.obj
 0001:00019ea3       __stricmp_l                1001aea3 f   LIBCMT:stricmp.obj
 0001:00019f63       __stricmp                  1001af63 f   LIBCMT:stricmp.obj
 0001:00019faa       _printf                    1001afaa f   LIBCMT:printf.obj
 0001:0001a051       __get_printf_count_output  1001b051 f   LIBCMT:printf.obj
 0001:0001a067       __CRT_INIT@12              1001b067 f   LIBCMT:dllcrt0.obj
 0001:0001a2c1       __DllMainCRTStartup@12     1001b2c1 f   LIBCMT:dllcrt0.obj
 0001:0001a2e4       _abort                     1001b2e4 f   LIBCMT:abort.obj
 0001:0001a317       __set_abort_behavior       1001b317 f   LIBCMT:abort.obj
 0001:0001a338       _free                      1001b338 f   LIBCMT:free.obj
 0001:0001a372       _malloc                    1001b372 f   LIBCMT:malloc.obj
 0001:0001a420       _strchr                    1001b420 f   LIBCMT:strchr.obj
 0001:0001a426       ___from_strstr_to_strchr   1001b426     LIBCMT:strchr.obj
 0001:0001a4de       __get_errno_from_oserr     1001b4de f   LIBCMT:dosmap.obj
 0001:0001a520       __errno                    1001b520 f   LIBCMT:dosmap.obj
 0001:0001a533       ___doserrno                1001b533 f   LIBCMT:dosmap.obj
 0001:0001a546       __dosmaperr                1001b546 f   LIBCMT:dosmap.obj
 0001:0001a570       _strcspn                   1001b570 f   LIBCMT:strcspn.obj
 0001:0001a7e1       _strtol                    1001b7e1 f   LIBCMT:strtol.obj
 0001:0001a80c       _calloc                    1001b80c f   LIBCMT:calloc.obj
 0001:0001a850       _strcpy                    1001b850 f   LIBCMT:strcat.obj
 0001:0001a860       _strcat                    1001b860 f   LIBCMT:strcat.obj
 0001:0001a948       __wcsnicmp_l               1001b948 f   LIBCMT:wcsnicmp.obj
 0001:0001aa2d       __wcsnicmp                 1001ba2d f   LIBCMT:wcsnicmp.obj
 0001:0001aacb       __snprintf                 1001bacb f   LIBCMT:snprintf.obj
 0001:0001ab77       _wcsrchr                   1001bb77 f   LIBCMT:wcsrchr.obj
 0001:0001aba5       __vsnprintf_l              1001bba5 f   LIBCMT:vsnprint.obj
 0001:0001ac51       __vsnprintf                1001bc51 f   LIBCMT:vsnprint.obj
 0001:0001ac6e       __getenv_helper_nolock     1001bc6e f   LIBCMT:getenv.obj
 0001:0001acf5       _getenv                    1001bcf5 f   LIBCMT:getenv.obj
 0001:0001ad6f       ??_U@YAPAXIABUnothrow_t@std@@@Z 1001bd6f f   LIBCMT:newaopnt.obj
 0001:0001ad7a       _atol                      1001bd7a f   LIBCMT:atox.obj
 0001:0001ad90       _atoi                      1001bd90 f   LIBCMT:atox.obj
 0001:0001ad9b       __flush                    1001bd9b f   LIBCMT:fflush.obj
 0001:0001ae03       __fflush_nolock            1001be03 f   LIBCMT:fflush.obj
 0001:0001af25       _fflush                    1001bf25 f   LIBCMT:fflush.obj
 0001:0001af78       __flushall                 1001bf78 f   LIBCMT:fflush.obj
 0001:0001af81       __wfsopen                  1001bf81 f   LIBCMT:wfopen.obj
 0001:0001b03f       __wfopen                   1001c03f f   LIBCMT:wfopen.obj
 0001:0001b056       _fprintf                   1001c056 f   LIBCMT:fprintf.obj
 0001:0001b162       __localtime64_s            1001c162 f   LIBCMT:loctim64.obj
 0001:0001b3ea       __localtime64              1001c3ea f   LIBCMT:loctim64.obj
 0001:0001b411       __fclose_nolock            1001c411 f   LIBCMT:fclose.obj
 0001:0001b47e       _fclose                    1001c47e f   LIBCMT:fclose.obj
 0001:0001b4f2       __time64                   1001c4f2 f   LIBCMT:time64.obj
 0001:0001b543       __fread_nolock_s           1001c543 f   LIBCMT:fread.obj
 0001:0001b6ff       _fread_s                   1001c6ff f   LIBCMT:fread.obj
 0001:0001b78d       _fread                     1001c78d f   LIBCMT:fread.obj
 0001:0001b7b0       _strcmp                    1001c7b0 f   LIBCMT:strcmp.obj
 0001:0001b838       __ftell_nolock             1001c838 f   LIBCMT:ftell.obj
 0001:0001b9cc       _ftell                     1001c9cc f   LIBCMT:ftell.obj
 0001:0001ba31       __fseek_nolock             1001ca31 f   LIBCMT:fseek.obj
 0001:0001babb       _fseek                     1001cabb f   LIBCMT:fseek.obj
 0001:0001bb37       _wcscpy_s                  1001cb37 f   LIBCMT:wcscpy_s.obj
 0001:0001bb9a       _wcsstr                    1001cb9a f   LIBCMT:wcsstr.obj
 0001:0001bbfa       __fwrite_nolock            1001cbfa f   LIBCMT:fwrite.obj
 0001:0001bd51       _fwrite                    1001cd51 f   LIBCMT:fwrite.obj
 0001:0001bdcb       _wcscmp                    1001cdcb f   LIBCMT:wcscmp.obj
 0001:0001be09       _strncmp                   1001ce09 f   LIBCMT:strncmp.obj
 0001:0001bed0       _longjmp                   1001ced0 f   LIBCMT:longjmp.obj
 0001:0001bf81       _sprintf                   1001cf81 f   LIBCMT:sprintf.obj
 0001:0001c005       __isalpha_l                1001d005 f i LIBCMT:_ctype.obj
 0001:0001c05b       _isalpha                   1001d05b f i LIBCMT:_ctype.obj
 0001:0001c08b       __isdigit_l                1001d08b f i LIBCMT:_ctype.obj
 0001:0001c0dc       _isdigit                   1001d0dc f i LIBCMT:_ctype.obj
 0001:0001c10a       __isspace_l                1001d10a f i LIBCMT:_ctype.obj
 0001:0001c15b       _isspace                   1001d15b f i LIBCMT:_ctype.obj
 0001:0001c190       _strncpy                   1001d190 f   LIBCMT:strncpy.obj
 0001:0001c2b4       __strdup                   1001d2b4 f   LIBCMT:strdup.obj
 0001:0001c310       _strspn                    1001d310 f   LIBCMT:strspn.obj
 0001:0001c356       _realloc                   1001d356 f   LIBCMT:realloc.obj
 0001:0001c403       __CxxThrowException@8      1001d403 f   LIBCMT:throw.obj
 0001:0001c44f       __VEC_memcpy               1001d44f f   LIBCMT:p4_memcpy.obj
 0001:0001c552       ___sse2_available_init     1001d552 f   LIBCMT:cpu_disp.obj
 0001:0001c785       ___updatetmbcinfo          1001d785 f   LIBCMT:mbctype.obj
 0001:0001c8a5       __setmbcp_nolock           1001d8a5 f   LIBCMT:mbctype.obj
 0001:0001ca8e       __setmbcp                  1001da8e f   LIBCMT:mbctype.obj
 0001:0001cc28       ___initmbctable            1001dc28 f   LIBCMT:mbctype.obj
 0001:0001cc46       ___addlocaleref            1001dc46 f   LIBCMT:localref.obj
 0001:0001ccd5       ___removelocaleref         1001dcd5 f   LIBCMT:localref.obj
 0001:0001cd6e       ___freetlocinfo            1001dd6e f   LIBCMT:localref.obj
 0001:0001ceb9       __updatetlocinfoEx_nolock  1001deb9 f   LIBCMT:localref.obj
 0001:0001cf06       ___updatetlocinfo          1001df06 f   LIBCMT:localref.obj
 0001:0001cf7f       __encoded_null             1001df7f f   LIBCMT:tidtable.obj
 0001:0001cf88       ___crtTlsAlloc@4           1001df88 f   LIBCMT:tidtable.obj
 0001:0001cf91       ___set_flsgetvalue         1001df91 f   LIBCMT:tidtable.obj
 0001:0001cfc5       __mtterm                   1001dfc5 f   LIBCMT:tidtable.obj
 0001:0001d002       __initptd                  1001e002 f   LIBCMT:tidtable.obj
 0001:0001d0b6       __getptd_noexit            1001e0b6 f   LIBCMT:tidtable.obj
 0001:0001d12f       __getptd                   1001e12f f   LIBCMT:tidtable.obj
 0001:0001d149       __freefls@4                1001e149 f   LIBCMT:tidtable.obj
 0001:0001d278       __freeptd                  1001e278 f   LIBCMT:tidtable.obj
 0001:0001d2e6       __mtinit                   1001e2e6 f   LIBCMT:tidtable.obj
 0001:0001d470       ___ascii_strnicmp          1001e470 f   LIBCMT:_strnicm.obj
 0001:0001d4d1       __initp_misc_invarg        1001e4d1 f   LIBCMT:invarg.obj
 0001:0001d4e0       __call_reportfault         1001e4e0 f   LIBCMT:invarg.obj
 0001:0001d609       __invoke_watson            1001e609 f   LIBCMT:invarg.obj
 0001:0001d62e       __invalid_parameter        1001e62e f   LIBCMT:invarg.obj
 0001:0001d65b       __invalid_parameter_noinfo 1001e65b f   LIBCMT:invarg.obj
 0001:0001d66b       _strcpy_s                  1001e66b f   LIBCMT:strcpy_s.obj
 0001:0001d6ca       __malloc_crt               1001e6ca f   LIBCMT:crtheap.obj
 0001:0001d70f       __calloc_crt               1001e70f f   LIBCMT:crtheap.obj
 0001:0001d75b       __realloc_crt              1001e75b f   LIBCMT:crtheap.obj
 0001:0001d7a9       __recalloc_crt             1001e7a9 f   LIBCMT:crtheap.obj
 0001:0001d7fb       __msize                    1001e7fb f   LIBCMT:msize.obj
 0001:0001d82e       ___crtCorExitProcess       1001e82e f   LIBCMT:crt0dat.obj
 0001:0001d859       ___crtExitProcess          1001e859 f   LIBCMT:crt0dat.obj
 0001:0001d871       __lockexit                 1001e871 f   LIBCMT:crt0dat.obj
 0001:0001d87a       __unlockexit               1001e87a f   LIBCMT:crt0dat.obj
 0001:0001d883       __init_pointers            1001e883 f   LIBCMT:crt0dat.obj
 0001:0001d8b6       __initterm_e               1001e8b6 f   LIBCMT:crt0dat.obj
 0001:0001d8da       __cinit                    1001e8da f   LIBCMT:crt0dat.obj
 0001:0001dab1       __exit                     1001eab1 f   LIBCMT:crt0dat.obj
 0001:0001dac7       __cexit                    1001eac7 f   LIBCMT:crt0dat.obj
 0001:0001dad6       __amsg_exit                1001ead6 f   LIBCMT:crt0dat.obj
 0001:0001db00       __SEH_prolog4              1001eb00 f   LIBCMT:sehprolg4.obj
 0001:0001db45       __SEH_epilog4              1001eb45 f   LIBCMT:sehprolg4.obj
 0001:0001db60       __except_handler4          1001eb60 f   LIBCMT:chandler4.obj
 0001:0001dcef       __freea                    1001ecef f i LIBCMT:a_map.obj
 0001:0001def6       ___crtLCMapStringA         1001eef6 f   LIBCMT:a_map.obj
 0001:0001df3c       __isleadbyte_l             1001ef3c f i LIBCMT:_wctype.obj
 0001:0001df74       _isleadbyte                1001ef74 f i LIBCMT:_wctype.obj
 0001:0001df87       __isctype_l                1001ef87 f   LIBCMT:isctype.obj
 0001:0001e03f       ?_Type_info_dtor@type_info@@CAXPAV1@@Z 1001f03f f   LIBCMT:typname.obj
 0001:0001e0af       __initp_heap_handler       1001f0af f   LIBCMT:handler.obj
 0001:0001e0be       __callnewh                 1001f0be f   LIBCMT:handler.obj
 0001:0001e0e6       __GET_RTERRMSG             1001f0e6 f   LIBCMT:crt0msg.obj
 0001:0001e10c       __NMSG_WRITE               1001f10c f   LIBCMT:crt0msg.obj
 0001:0001e2bb       __FF_MSGBANNER             1001f2bb f   LIBCMT:crt0msg.obj
 0001:0001e2f4       __initp_misc_purevirt      1001f2f4 f   LIBCMT:inithelp.obj
 0001:0001e303       __VEC_memzero              1001f303 f   LIBCMT:p4_memset.obj
 0001:0001e3bd       ___iob_func                1001f3bd f   LIBCMT:_file.obj
 0001:0001e3c3       ___initstdio               1001f3c3 f   LIBCMT:_file.obj
 0001:0001e474       ___endstdio                1001f474 f   LIBCMT:_file.obj
 0001:0001e494       __lock_file                1001f494 f   LIBCMT:_file.obj
 0001:0001e4d5       __lock_file2               1001f4d5 f   LIBCMT:_file.obj
 0001:0001e507       __unlock_file              1001f507 f   LIBCMT:_file.obj
 0001:0001e543       __unlock_file2             1001f543 f   LIBCMT:_file.obj
 0001:0001e572       __stbuf                    1001f572 f   LIBCMT:_sftbuf.obj
 0001:0001e60e       __ftbuf                    1001f60e f   LIBCMT:_sftbuf.obj
 0001:0001e6d7       __output_l                 1001f6d7 f   LIBCMT:output.obj
 0001:0001f2df       __ioinit                   100202df f   LIBCMT:ioinit.obj
 0001:0001f524       __ioterm                   10020524 f   LIBCMT:ioinit.obj
 0001:0001f577       __setenvp                  10020577 f   LIBCMT:stdenvp.obj
 0001:0001f7ed       __setargv                  100207ed f   LIBCMT:stdargv.obj
 0001:0001f8a8       ___crtGetEnvironmentStringsA 100208a8 f   LIBCMT:a_env.obj
 0001:0001f93f       __RTC_Initialize           1002093f f   LIBCMT:_initsect_.obj
 0001:0001f965       __RTC_Terminate            10020965 f   LIBCMT:_initsect_.obj
 0001:0001f98b       __heap_init                1002098b f   LIBCMT:heapinit.obj
 0001:0001f9a9       __heap_term                100209a9 f   LIBCMT:heapinit.obj
 0001:0001f9bd       __XcptFilter               100209bd f   LIBCMT:winxfltr.obj
 0001:0001fb07       ___CppXcptFilter           10020b07 f   LIBCMT:winxfltr.obj
 0001:0001fb27       ___security_init_cookie    10020b27 f   LIBCMT:gs_support.obj
 0001:0001fbc2       __initp_misc_winsig        10020bc2 f   LIBCMT:winsig.obj
 0001:0001fc17       ___get_sigabrt             10020c17 f   LIBCMT:winsig.obj
 0001:0001fc24       _raise                     10020c24 f   LIBCMT:winsig.obj
 0001:0001fdc7       __calloc_impl              10020dc7 f   LIBCMT:calloc_impl.obj
 0001:0001fe49       __towlower_l               10020e49 f   LIBCMT:towlower.obj
 0001:0001fee9       __flsbuf                   10020ee9 f   LIBCMT:_flsbuf.obj
 0001:0002004d       __mbsnbicoll_l             1002104d f   LIBCMT:mbsnbico.obj
 0001:0002012b       __mbsnbicoll               1002112b f   LIBCMT:mbsnbico.obj
 0001:00020145       ___wtomb_environ           10021145 f   LIBCMT:wtombenv.obj
 0001:000201dc       __mtinitlocks              100211dc f   LIBCMT:mlock.obj
 0001:00020226       __mtdeletelocks            10021226 f   LIBCMT:mlock.obj
 0001:0002027d       __unlock                   1002127d f   LIBCMT:mlock.obj
 0001:00020294       __mtinitlocknum            10021294 f   LIBCMT:mlock.obj
 0001:00020356       __lock                     10021356 f   LIBCMT:mlock.obj
 0001:00020389       _strnlen                   10021389 f   LIBCMT:strlen_s.obj
 0001:000203a6       ??2@YAPAXIABUnothrow_t@std@@@Z 100213a6 f   LIBCMT:newopnt.obj
 0001:000203d5       __write_nolock             100213d5 f   LIBCMT:write.obj
 0001:00020ad2       __write                    10021ad2 f   LIBCMT:write.obj
 0001:00020ba6       __fileno                   10021ba6 f   LIBCMT:fileno.obj
 0001:00020bcc       __commit                   10021bcc f   LIBCMT:commit.obj
 0001:00020ca5       __wopenfile                10021ca5 f   LIBCMT:_wopen.obj
 0001:00020f5e       __getstream                10021f5e f   LIBCMT:stream.obj
 0001:000210a0       __local_unwind4            100220a0 f   LIBCMT:exsup4.obj
 0001:00021176       __seh_longjmp_unwind4@4    10022176 f   LIBCMT:exsup4.obj
 0001:00021192       @_EH4_CallFilterFunc@8     10022192 f   LIBCMT:exsup4.obj
 0001:000211a9       @_EH4_TransferToHandler@8  100221a9 f   LIBCMT:exsup4.obj
 0001:000211c2       @_EH4_GlobalUnwind2@8      100221c2 f   LIBCMT:exsup4.obj
 0001:000211db       @_EH4_LocalUnwind@16       100221db f   LIBCMT:exsup4.obj
 0001:000218d3       ___tzset                   100228d3 f   LIBCMT:tzset.obj
 0001:00021922       __isindst                  10022922 f   LIBCMT:tzset.obj
 0001:00021963       __gmtime64_s               10022963 f   LIBCMT:gmtime64.obj
 0001:00021b9c       __get_daylight             10022b9c f   LIBCMT:timeset.obj
 0001:00021bc9       __get_dstbias              10022bc9 f   LIBCMT:timeset.obj
 0001:00021bf6       __get_timezone             10022bf6 f   LIBCMT:timeset.obj
 0001:00021c23       ___daylight                10022c23 f   LIBCMT:timeset.obj
 0001:00021c29       ___dstbias                 10022c29 f   LIBCMT:timeset.obj
 0001:00021c2f       ___timezone                10022c2f f   LIBCMT:timeset.obj
 0001:00021c35       ___tzname                  10022c35 f   LIBCMT:timeset.obj
 0001:00021c40       __alldiv                   10022c40 f   LIBCMT:lldiv.obj
 0001:00021cf0       __allrem                   10022cf0 f   LIBCMT:llrem.obj
 0001:00021da2       ___getgmtimebuf            10022da2 f   LIBCMT:gmtime.obj
 0001:00021dd9       __close_nolock             10022dd9 f   LIBCMT:close.obj
 0001:00021e75       __close                    10022e75 f   LIBCMT:close.obj
 0001:00021f39       __freebuf                  10022f39 f   LIBCMT:_freebuf.obj
 0001:00021f70       __aulldiv                  10022f70 f   LIBCMT:ulldiv.obj
 0001:00021fd8       __filbuf                   10022fd8 f   LIBCMT:_filbuf.obj
 0001:000220fa       __read_nolock              100230fa f   LIBCMT:read.obj
 0001:000226b1       __read                     100236b1 f   LIBCMT:read.obj
 0001:000227a7       _memcpy_s                  100237a7 f   LIBCMT:memcpy_s.obj
 0001:0002281c       __lseek_nolock             1002381c f   LIBCMT:lseek.obj
 0001:00022891       __lseek                    10023891 f   LIBCMT:lseek.obj
 0001:00022970       __global_unwind2           10023970 f   LIBCMT:exsup.obj
 0001:000229d5       __local_unwind2            100239d5 f   LIBCMT:exsup.obj
 0001:00022a59       __abnormal_termination     10023a59 f   LIBCMT:exsup.obj
 0001:00022a7c       __NLG_Notify1              10023a7c f   LIBCMT:exsup.obj
 0001:00022a85       __NLG_Notify               10023a85 f   LIBCMT:exsup.obj
 0001:00022a9c       __NLG_Dispatch             10023a9c     LIBCMT:exsup.obj
 0001:00022a9c       __NLG_Dispatch2            10023a9c     LIBCMT:exsup.obj
 0001:00022aa4       __NLG_Call                 10023aa4 f   LIBCMT:exsup.obj
 0001:00022aa6       __NLG_Return2              10023aa6     LIBCMT:exsup.obj
 0001:00022aa7       __rt_probe_read4@4         10023aa7 f   LIBCMT:sehsupp.obj
 0001:00022bd9       ___crtGetStringTypeA       10023bd9 f   LIBCMT:a_str.obj
 0001:00022c19       @__security_check_cookie@4 10023c19 f   LIBCMT:secchk.obj
 0001:00022c28       ___free_lc_time            10023c28 f   LIBCMT:inittime.obj
 0001:00022f9f       ___free_lconv_num          10023f9f f   LIBCMT:initnum.obj
 0001:00023008       ___free_lconv_mon          10024008 f   LIBCMT:initmon.obj
 0001:00023106       __crt_debugger_hook        10024106 f   LIBCMT:dbghook.obj
 0001:0002310e       ____lc_codepage_func       1002410e f   LIBCMT:initctyp.obj
 0001:00023134       _strncpy_s                 10024134 f   LIBCMT:strncpy_s.obj
 0001:000231f0       _strpbrk                   100241f0 f   LIBCMT:strpbrk.obj
 0001:00023230       __recalloc                 10024230 f   LIBCMT:recalloc.obj
 0001:0002329e       ?terminate@@YAXXZ          1002429e f   LIBCMT:hooks.obj
 0001:000232d7       ?unexpected@@YAXXZ         100242d7 f   LIBCMT:hooks.obj
 0001:000232ea       ?_inconsistency@@YAXXZ     100242ea f   LIBCMT:hooks.obj
 0001:00023322       __initp_eh_hooks           10024322 f   LIBCMT:hooks.obj
 0001:00023333       __initp_misc_rand_s        10024333 f   LIBCMT:rand_s.obj
 0001:00023342       __initp_misc_cfltcvt_tab   10024342 f   LIBCMT:cmiscdat.obj
 0001:00023370       __ValidateImageBase        10024370 f   LIBCMT:pesect.obj
 0001:000233b0       __FindPESection            100243b0 f   LIBCMT:pesect.obj
 0001:00023400       __IsNonwritableInCurrentImage 10024400 f   LIBCMT:pesect.obj
 0001:000234c0       __alloca_probe_16          100244c0 f   LIBCMT:alloca16.obj
 0001:000234d6       __alloca_probe_8           100244d6     LIBCMT:alloca16.obj
 0001:000234ec       _iswctype                  100244ec f   LIBCMT:iswctype.obj
 0001:00023541       __mbtowc_l                 10024541 f   LIBCMT:mbtowc.obj
 0001:00023657       _mbtowc                    10024657 f   LIBCMT:mbtowc.obj
 0001:00023680       __allmul                   10024680 f   LIBCMT:llmul.obj
 0001:000236b4       ___crtMessageBoxW          100246b4 f   LIBCMT:crtmboxw.obj
 0001:00023820       _wcscat_s                  10024820 f   LIBCMT:wcscat_s.obj
 0001:00023895       _wcsncpy_s                 10024895 f   LIBCMT:wcsncpy_s.obj
 0001:00023962       __set_error_mode           10024962 f   LIBCMT:errmode.obj
 0001:000239a1       __fcloseall                100249a1 f   LIBCMT:closeall.obj
 0001:00023a3d       __isatty                   10024a3d f   LIBCMT:isatty.obj
 0001:00023a93       __wctomb_s_l               10024a93 f   LIBCMT:wctomb.obj
 0001:00023be8       _wctomb_s                  10024be8 f   LIBCMT:wctomb.obj
 0001:00023c10       __aulldvrm                 10024c10 f   LIBCMT:ulldvrm.obj
 0001:00023cf8       __ismbblead                10024cf8 f   LIBCMT:ismbbyte.obj
 0001:00023d10       ___crtLCMapStringW         10024d10 f   LIBCMT:w_map.obj
 0001:00023d3f       __lseeki64_nolock          10024d3f f   LIBCMT:lseeki64.obj
 0001:00023dc4       __lseeki64                 10024dc4 f   LIBCMT:lseeki64.obj
 0001:00023eae       __getbuf                   10024eae f   LIBCMT:_getbuf.obj
 0001:00024165       ___crtCompareStringA       10025165 f   LIBCMT:a_cmp.obj
 0001:000241a7       __strnicoll_l              100251a7 f   LIBCMT:strnicol.obj
 0001:00024343       ___crtsetenv               10025343 f   LIBCMT:setenv.obj
 0001:00024585       ?_JumpToContinuation@@YGXPAXPAUEHRegistrationNode@@@Z 10025585 f   LIBCMT:_trnsctrl_.obj
 0001:000245b7       ?_CallMemberFunction2@@YGXPAX00H@Z 100255b7 f   LIBCMT:_trnsctrl_.obj
 0001:000245b7       ?_CallMemberFunction0@@YGXPAX0@Z 100255b7 f   LIBCMT:_trnsctrl_.obj
 0001:000245b7       ?_CallMemberFunction1@@YGXPAX00@Z 100255b7 f   LIBCMT:_trnsctrl_.obj
 0001:000245be       ?_UnwindNestedFrames@@YGXPAUEHRegistrationNode@@PAUEHExceptionRecord@@@Z 100255be f   LIBCMT:_trnsctrl_.obj
 0001:00024612       ___CxxFrameHandler3        10025612 f   LIBCMT:_trnsctrl_.obj
 0001:0002467b       ?_CallSETranslator@@YAHPAUEHExceptionRecord@@PAUEHRegistrationNode@@PAX2PBU_s_FuncInfo@@H1@Z 1002567b f   LIBCMT:_trnsctrl_.obj
 0001:000247f1       ?_GetRangeOfTrysToCheck@@YAPBU_s_TryBlockMapEntry@@PBU_s_FuncInfo@@HHPAI1@Z 100257f1 f   LIBCMT:_trnsctrl_.obj
 0001:00024864       __CreateFrameInfo          10025864 f   LIBCMT:_trnsctrl_.obj
 0001:00024890       __IsExceptionObjectToBeDestroyed 10025890 f   LIBCMT:_trnsctrl_.obj
 0001:000248b7       __FindAndUnlinkFrame       100258b7 f   LIBCMT:_trnsctrl_.obj
 0001:00024909       ?_CallCatchBlock2@@YAPAXPAUEHRegistrationNode@@PBU_s_FuncInfo@@PAXHK@Z 10025909 f   LIBCMT:_trnsctrl_.obj
 0001:00024969       __EH_prolog3_catch         10025969 f   LIBCMT:ehprolg3.obj
 0001:0002499f       __EH_epilog3               1002599f f   LIBCMT:ehprolg3.obj
 0001:000249b3       __putwch_nolock            100259b3 f   LIBCMT:putwch.obj
 0001:00024a00       __alloca_probe             10025a00     LIBCMT:chkstk.obj
 0001:00024a00       __chkstk                   10025a00 f   LIBCMT:chkstk.obj
 0001:00024a2b       __set_osfhnd               10025a2b f   LIBCMT:osfinfo.obj
 0001:00024aac       __free_osfhnd              10025aac f   LIBCMT:osfinfo.obj
 0001:00024b32       __get_osfhandle            10025b32 f   LIBCMT:osfinfo.obj
 0001:00024b9b       ___lock_fhandle            10025b9b f   LIBCMT:osfinfo.obj
 0001:00024c3a       __unlock_fhandle           10025c3a f   LIBCMT:osfinfo.obj
 0001:00024c61       __alloc_osfhnd             10025c61 f   LIBCMT:osfinfo.obj
 0001:0002552f       __wsopen_helper            1002652f f   LIBCMT:wopen.obj
 0001:000255f3       __wsopen_s                 100265f3 f   LIBCMT:wopen.obj
 0001:00025613       _wcsncmp                   10026613 f   LIBCMT:wcsncmp.obj
 0001:0002564c       ___report_gsfailure        1002664c f   LIBCMT:gs_report.obj
 0001:00025752       __fptrap                   10026752 f   LIBCMT:crt0fp.obj
 0001:0002575b       _wcsnlen                   1002675b f   LIBCMT:wcslen_s.obj
 0001:0002577b       __mbschr_l                 1002677b f   LIBCMT:mbschr.obj
 0001:0002582b       __mbschr                   1002682b f   LIBCMT:mbschr.obj
 0001:00025842       ??1bad_exception@std@@UAE@XZ 10026842 f i LIBCMT:frame.obj
 0001:0002584d       ??_Gbad_exception@std@@UAEPAXI@Z 1002684d f i LIBCMT:frame.obj
 0001:0002584d       ??_Ebad_exception@std@@UAEPAXI@Z 1002684d f i LIBCMT:frame.obj
 0001:00025874       ___TypeMatch               10026874 f   LIBCMT:frame.obj
 0001:000258d3       ___FrameUnwindFilter       100268d3 f   LIBCMT:frame.obj
 0001:00025922       ___FrameUnwindToState      10026922 f   LIBCMT:frame.obj
 0001:00025a43       ___DestructExceptionObject 10026a43 f   LIBCMT:frame.obj
 0001:00025a98       ___AdjustPointer           10026a98 f   LIBCMT:frame.obj
 0001:00025d1c       ___BuildCatchObjectHelper  10026d1c f   LIBCMT:frame.obj
 0001:00025e9b       ___BuildCatchObject        10026e9b f   LIBCMT:frame.obj
 0001:00026417       ??0bad_exception@std@@QAE@ABV01@@Z 10027417 f i LIBCMT:frame.obj
 0001:00026434       ___InternalCxxFrameHandler 10027434 f   LIBCMT:frame.obj
 0001:00026520       __CallSettingFrame@12      10027520 f   LIBCMT:lowhelpr.obj
 0001:00026547       __NLG_Return               10027547     LIBCMT:lowhelpr.obj
 0001:0002656c       ___initconout              1002756c f   LIBCMT:initcon.obj
 0001:0002658b       ___termconout              1002758b f   LIBCMT:initcon.obj
 0001:000265a2       __chsize_nolock            100275a2 f   LIBCMT:chsize.obj
 0001:00026758       __setmode_nolock           10027758 f   LIBCMT:setmode.obj
 0001:00026813       __get_fmode                10027813 f   LIBCMT:setmode.obj
 0001:00026840       ?_ValidateRead@@YAHPBXI@Z  10027840 f   LIBCMT:validate.obj
 0001:00026840       ?_ValidateExecute@@YAHP6GHXZ@Z 10027840 f   LIBCMT:validate.obj
 0001:00026840       ?_ValidateWrite@@YAHPAXI@Z 10027840 f   LIBCMT:validate.obj
 0001:00026852       _RtlUnwind@16              10027852 f   kernel32:KERNEL32.dll
 0001:00026858       _UNITY_png_create_read_struct_2 10027858 f   libpng:pngread.obj
 0001:000268a9       _UNITY_png_read_info       100278a9 f   libpng:pngread.obj
 0001:00026b00       _UNITY_png_read_update_info 10027b00 f   libpng:pngread.obj
 0001:00026bff       _UNITY_png_read_row        10027bff f   libpng:pngread.obj
 0001:00026ec4       _UNITY_png_read_rows       10027ec4 f   libpng:pngread.obj
 0001:00026f44       _UNITY_png_read_end        10027f44 f   libpng:pngread.obj
 0001:0002723b       _UNITY_png_destroy_read_struct 1002823b f   libpng:pngread.obj
 0001:00027274       _UNITY_png_create_read_struct 10028274 f   libpng:pngread.obj
 0001:00027292       _UNITY_png_sig_cmp         10028292 f   libpng:png.obj
 0001:000272e6       _UNITY_png_zalloc          100282e6 f   libpng:png.obj
 0001:00027313       _UNITY_png_zfree           10028313 f   libpng:png.obj
 0001:0002731c       _UNITY_png_reset_crc       1002831c f   libpng:png.obj
 0001:00027337       _UNITY_png_calculate_crc   10028337 f   libpng:png.obj
 0001:0002739a       _UNITY_png_create_info_struct 1002839a f   libpng:png.obj
 0001:000273d1       _UNITY_png_free_data       100283d1 f   libpng:png.obj
 0001:00027695       _UNITY_png_get_io_ptr      10028695 f   libpng:png.obj
 0001:000276a6       _UNITY_png_handle_as_unknown 100286a6 f   libpng:png.obj
 0001:000276f3       _UNITY_png_chunk_unknown_handling 100286f3 f   libpng:png.obj
 0001:0002772a       _UNITY_png_zstream_error   1002872a f   libpng:png.obj
 0001:000277f2       _UNITY_png_colorspace_sync_info 100287f2 f   libpng:png.obj
 0001:00027851       _UNITY_png_colorspace_sync 10028851 f   libpng:png.obj
 0001:00027b4d       _UNITY_png_icc_check_length 10028b4d f   libpng:png.obj
 0001:00027b82       _UNITY_png_icc_check_header 10028b82 f   libpng:png.obj
 0001:00027ded       _UNITY_png_icc_check_tag_table 10028ded f   libpng:png.obj
 0001:00028096       _UNITY_png_check_IHDR      10029096 f   libpng:png.obj
 0001:00028185       _UNITY_png_check_fp_number 10029185 f   libpng:png.obj
 0001:0002828b       _UNITY_png_check_fp_string 1002928b f   libpng:png.obj
 0001:000282cc       _UNITY_png_muldiv          100292cc f   libpng:png.obj
 0001:0002832e       _UNITY_png_reciprocal      1002932e f   libpng:png.obj
 0001:00028376       _UNITY_png_gamma_significant 10029376 f   libpng:png.obj
 0001:000283d9       _UNITY_png_reciprocal2     100293d9 f   libpng:png.obj
 0001:00028424       _UNITY_png_gamma_8bit_correct 10029424 f   libpng:png.obj
 0001:00028484       _UNITY_png_gamma_16bit_correct 10029484 f   libpng:png.obj
 0001:000284e4       _UNITY_png_gamma_correct   100294e4 f   libpng:png.obj
 0001:000287c9       _UNITY_png_destroy_gamma_table 100297c9 f   libpng:png.obj
 0001:000288f3       _UNITY_png_build_gamma_table 100298f3 f   libpng:png.obj
 0001:00028ab6       _UNITY_png_unity_get_crc   10029ab6 f   libpng:png.obj
 0001:00028ac4       _UNITY_png_user_version_check 10029ac4 f   libpng:png.obj
 0001:00028b26       _UNITY_png_create_png_struct 10029b26 f   libpng:png.obj
 0001:00028c22       _UNITY_png_destroy_info_struct 10029c22 f   libpng:png.obj
 0001:00028ce3       _UNITY_png_colorspace_set_gamma 10029ce3 f   libpng:png.obj
 0001:000291a9       _UNITY_png_colorspace_set_chromaticities 1002a1a9 f   libpng:png.obj
 0001:00029210       _UNITY_png_colorspace_set_sRGB 1002a210 f   libpng:png.obj
 0001:000292f4       _UNITY_png_icc_set_sRGB    1002a2f4 f   libpng:png.obj
 0001:0002933d       _UNITY_png_get_valid       1002a33d f   libpng:pngget.obj
 0001:00029359       _UNITY_png_get_gAMA        1002a359 f   libpng:pngget.obj
 0001:0002938a       _UNITY_png_get_IHDR        1002a38a f   libpng:pngget.obj
 0001:0002942d       _UNITY_png_set_crc_action  1002a42d f   libpng:pngrtran.obj
 0001:000294f1       _UNITY_png_set_strip_16    1002a4f1 f   libpng:pngrtran.obj
 0001:000295bf       _UNITY_png_set_gamma_fixed 1002a5bf f   libpng:pngrtran.obj
 0001:00029620       _UNITY_png_set_gamma       1002a620 f   libpng:pngrtran.obj
 0001:00029658       _UNITY_png_set_expand      1002a658 f   libpng:pngrtran.obj
 0001:00029677       _UNITY_png_set_expand_gray_1_2_4_to_8 1002a677 f   libpng:pngrtran.obj
 0001:00029696       _UNITY_png_set_gray_to_rgb 1002a696 f   libpng:pngrtran.obj
 0001:00029841       _UNITY_png_init_read_transformations 1002a841 f   libpng:pngrtran.obj
 0001:0002a180       _UNITY_png_read_transform_info 1002b180 f   libpng:pngrtran.obj
 0001:0002c3a6       _UNITY_png_do_read_transformations 1002d3a6 f   libpng:pngrtran.obj
 0001:0002c6b1       _UNITY_png_set_bgr         1002d6b1 f   libpng:pngtrans.obj
 0001:0002c6c1       _UNITY_png_set_packing     1002d6c1 f   libpng:pngtrans.obj
 0001:0002c6e1       _UNITY_png_set_interlace_handling 1002d6e1 f   libpng:pngtrans.obj
 0001:0002c702       _UNITY_png_set_filler      1002d702 f   libpng:pngtrans.obj
 0001:0002c77d       _UNITY_png_set_add_alpha   1002d77d f   libpng:pngtrans.obj
 0001:0002c7ac       _UNITY_png_set_swap_alpha  1002d7ac f   libpng:pngtrans.obj
 0001:0002c7bf       _UNITY_png_do_swap         1002d7bf f   libpng:pngtrans.obj
 0001:0002c7ef       _UNITY_png_do_strip_channel 1002d7ef f   libpng:pngtrans.obj
 0001:0002c926       _UNITY_png_do_bgr          1002d926 f   libpng:pngtrans.obj
 0001:0002c9e5       _UNITY_png_do_check_palette_indexes 1002d9e5 f   libpng:pngtrans.obj
 0001:0002cb3a       _UNITY_png_safecat         1002db3a f   libpng:pngerror.obj
 0001:0002cc09       _UNITY_png_free_jmpbuf     1002dc09 f   libpng:pngerror.obj
 0001:0002cc68       _UNITY_png_longjmp         1002dc68 f   libpng:pngerror.obj
 0001:0002cc8e       _UNITY_png_set_error_fn    1002dc8e f   libpng:pngerror.obj
 0001:0002cca6       _UNITY_png_error           1002dca6 f   libpng:pngerror.obj
 0001:0002ccc9       _UNITY_png_app_warning     1002dcc9 f   libpng:pngerror.obj
 0001:0002cce3       _UNITY_png_app_error       1002dce3 f   libpng:pngerror.obj
 0001:0002ccfd       _UNITY_png_chunk_error     1002dcfd f   libpng:pngerror.obj
 0001:0002cd2e       _UNITY_png_chunk_benign_error 1002dd2e f   libpng:pngerror.obj
 0001:0002cd48       _UNITY_png_chunk_report    1002dd48 f   libpng:pngerror.obj
 0001:0002cd82       _UNITY_png_fixed_error     1002dd82 f   libpng:pngerror.obj
 0001:0002cdde       _UNITY_png_set_longjmp_fn  1002ddde f   libpng:pngerror.obj
 0001:0002ce47       _UNITY_png_benign_error    1002de47 f   libpng:pngerror.obj
 0001:0002ce7c       _UNITY_png_read_data       1002de7c f   libpng:pngrio.obj
 0001:0002cea3       _UNITY_png_default_read_data 1002dea3 f   libpng:pngrio.obj
 0001:0002ced4       _UNITY_png_set_read_fn     1002ded4 f   libpng:pngrio.obj
 0001:0002cf09       _UNITY_png_set_bKGD        1002df09 f   libpng:pngset.obj
 0001:0002cf34       _UNITY_png_set_IHDR        1002df34 f   libpng:pngset.obj
 0001:0002cfe1       _UNITY_png_set_oFFs        1002dfe1 f   libpng:pngset.obj
 0001:0002d015       _UNITY_png_set_pCAL        1002e015 f   libpng:pngset.obj
 0001:0002d1d6       _UNITY_png_set_sCAL_s      1002e1d6 f   libpng:pngset.obj
 0001:0002d306       _UNITY_png_set_pHYs        1002e306 f   libpng:pngset.obj
 0001:0002d33a       _UNITY_png_set_PLTE        1002e33a f   libpng:pngset.obj
 0001:0002d3f4       _UNITY_png_set_sBIT        1002e3f4 f   libpng:pngset.obj
 0001:0002d41d       _UNITY_png_set_text_2      1002e41d f   libpng:pngset.obj
 0001:0002d69c       _UNITY_png_set_tRNS        1002e69c f   libpng:pngset.obj
 0001:0002d73d       _UNITY_png_set_sPLT        1002e73d f   libpng:pngset.obj
 0001:0002d888       _UNITY_png_get_uint_31     1002e888 f   libpng:pngrutil.obj
 0001:0002d8eb       _UNITY_png_read_sig        1002e8eb f   libpng:pngrutil.obj
 0001:0002d97a       _UNITY_png_crc_read        1002e97a f   libpng:pngrutil.obj
 0001:0002d99c       _UNITY_png_crc_error       1002e99c f   libpng:pngrutil.obj
 0001:0002ded8       _UNITY_png_check_chunk_name 1002eed8 f   libpng:pngrutil.obj
 0001:0002df12       _UNITY_png_combine_row     1002ef12 f   libpng:pngrutil.obj
 0001:0002e2da       _UNITY_png_do_read_interlace 1002f2da f   libpng:pngrutil.obj
 0001:0002e7e0       _UNITY_png_read_filter_row 1002f7e0 f   libpng:pngrutil.obj
 0001:0002e814       _UNITY_png_read_start_row  1002f814 f   libpng:pngrutil.obj
 0001:0002ead3       _UNITY_png_read_chunk_header 1002fad3 f   libpng:pngrutil.obj
 0001:0002eb55       _UNITY_png_crc_finish      1002fb55 f   libpng:pngrutil.obj
 0001:0002ebce       _UNITY_png_handle_IHDR     1002fbce f   libpng:pngrutil.obj
 0001:0002ecf8       _UNITY_png_handle_PLTE     1002fcf8 f   libpng:pngrutil.obj
 0001:0002ee4d       _UNITY_png_handle_IEND     1002fe4d f   libpng:pngrutil.obj
 0001:0002ee92       _UNITY_png_handle_gAMA     1002fe92 f   libpng:pngrutil.obj
 0001:0002ef1e       _UNITY_png_handle_sBIT     1002ff1e f   libpng:pngrutil.obj
 0001:0002f065       _UNITY_png_handle_cHRM     10030065 f   libpng:pngrutil.obj
 0001:0002f1c4       _UNITY_png_handle_sRGB     100301c4 f   libpng:pngrutil.obj
 0001:0002f279       _UNITY_png_handle_iCCP     10030279 f   libpng:pngrutil.obj
 0001:0002f645       _UNITY_png_handle_sPLT     10030645 f   libpng:pngrutil.obj
 0001:0002f841       _UNITY_png_handle_tRNS     10030841 f   libpng:pngrutil.obj
 0001:0002fa24       _UNITY_png_handle_bKGD     10030a24 f   libpng:pngrutil.obj
 0001:0002fbcd       _UNITY_png_handle_pHYs     10030bcd f   libpng:pngrutil.obj
 0001:0002fcb4       _UNITY_png_handle_oFFs     10030cb4 f   libpng:pngrutil.obj
 0001:0002fd9e       _UNITY_png_handle_pCAL     10030d9e f   libpng:pngrutil.obj
 0001:0002ffbb       _UNITY_png_handle_sCAL     10030fbb f   libpng:pngrutil.obj
 0001:0003014d       _UNITY_png_handle_iTXt     1003114d f   libpng:pngrutil.obj
 0001:00030341       _UNITY_png_handle_unknown  10031341 f   libpng:pngrutil.obj
 0001:0003036d       _UNITY_png_read_IDAT_data  1003136d f   libpng:pngrutil.obj
 0001:000304ec       _UNITY_png_read_finish_IDAT 100314ec f   libpng:pngrutil.obj
 0001:00030548       _UNITY_png_read_finish_row 10031548 f   libpng:pngrutil.obj
 0001:00030615       _UNITY_png_malloc_base     10031615 f   libpng:pngmem.obj
 0001:0003066c       _UNITY_png_malloc_array    1003166c f   libpng:pngmem.obj
 0001:00030699       _UNITY_png_realloc_array   10031699 f   libpng:pngmem.obj
 0001:00030724       _UNITY_png_malloc          10031724 f   libpng:pngmem.obj
 0001:00030750       _UNITY_png_malloc_warn     10031750 f   libpng:pngmem.obj
 0001:0003076e       _UNITY_png_free_default    1003176e f   libpng:pngmem.obj
 0001:00030788       _UNITY_png_set_mem_fn      10031788 f   libpng:pngmem.obj
 0001:000307af       _UNITY_png_calloc          100317af f   libpng:pngmem.obj
 0001:000307f0       _UNITY_png_free            100317f0 f   libpng:pngmem.obj
 0001:0003081b       _UNITY_png_destroy_png_struct 1003181b f   libpng:pngmem.obj
 0001:00030aae       _unzGetGlobalInfo          10031aae f   zlib:unzip.obj
 0001:00030e05       _unzGetCurrentFileInfo     10031e05 f   zlib:unzip.obj
 0001:00030e2c       _unzGoToFirstFile          10031e2c f   zlib:unzip.obj
 0001:00030e71       _unzGoToNextFile           10031e71 f   zlib:unzip.obj
 0001:000310c2       _unzReadCurrentFile        100320c2 f   zlib:unzip.obj
 0001:000312ef       _unzCloseCurrentFile       100322ef f   zlib:unzip.obj
 0001:00031368       _unzOpen2                  10032368 f   zlib:unzip.obj
 0001:00031581       _unzClose                  10032581 f   zlib:unzip.obj
 0001:000315b8       _unzOpenCurrentFile3       100325b8 f   zlib:unzip.obj
 0001:00031841       _unzOpenCurrentFile        10032841 f   zlib:unzip.obj
 0001:00031857       _unity_z_inflateReset      10032857 f   zlib:inflate.obj
 0001:000318b6       _unity_z_inflateInit2_     100328b6 f   zlib:inflate.obj
 0001:00031970       _unity_z_inflateInit_      10032970 f   zlib:inflate.obj
 0001:00031a5e       _unity_z_inflate           10032a5e f   zlib:inflate.obj
 0001:00032cc6       _unity_z_inflateEnd        10033cc6 f   zlib:inflate.obj
 0001:00033876       _unity_z_get_crc_table     10034876 f   zlib:crc32.obj
 0001:00033aea       _unity_z_crc32             10034aea f   zlib:crc32.obj
 0001:00033b06       _unity_z_adler32           10034b06 f   zlib:adler32.obj
 0001:00033d27       _fopen_file_func           10034d27 f   zlib:ioapi.obj
 0001:00033d6e       _fread_file_func           10034d6e f   zlib:ioapi.obj
 0001:00033d86       _fwrite_file_func          10034d86 f   zlib:ioapi.obj
 0001:00033d9e       _ftell_file_func           10034d9e f   zlib:ioapi.obj
 0001:00033dac       _fseek_file_func           10034dac f   zlib:ioapi.obj
 0001:00033de1       _fclose_file_func          10034de1 f   zlib:ioapi.obj
 0001:00033def       _ferror_file_func          10034def f   zlib:ioapi.obj
 0001:00033dfd       _fill_fopen_filefunc       10034dfd f   zlib:ioapi.obj
 0001:00033e39       _zcalloc                   10034e39 f   zlib:zutil.obj
 0001:00033e4c       _zcfree                    10034e4c f   zlib:zutil.obj
 0001:00033e5a       _inflate_fast              10034e5a f   zlib:inffast.obj
 0001:0003424c       _inflate_table             1003524c f   zlib:inftrees.obj
 0001:000357ff       _unity_z_tr_stored_block   100367ff f   zlib:trees.obj
 0001:00035881       _unity_z_tr_flush_block    10036881 f   zlib:trees.obj
 0001:00035a7c       ?RemoveFromList@ListElement@@QAE_NXZ 10036a7c f i CrashHandlerLib:CrashHandler.obj
 0001:00035a9c       ?InsertInList@ListElement@@QAEXPAV1@@Z 10036a9c f i CrashHandlerLib:CrashHandler.obj
 0001:000364a0       ??_GDefaultExecutionEnvironment@unity@@UAEPAXI@Z 100374a0 f i CrashHandlerLib:CrashHandler.obj
 0001:000364a0       ??_GExecutionEnvironment@unity@@UAEPAXI@Z 100374a0 f i CrashHandlerLib:CrashHandler.obj
 0001:000364a0       ??_EExecutionEnvironment@unity@@UAEPAXI@Z 100374a0 f i CrashHandlerLib:CrashHandler.obj
 0001:000364a0       ??_EDefaultExecutionEnvironment@unity@@UAEPAXI@Z 100374a0 f i CrashHandlerLib:CrashHandler.obj
 0001:000364c0       ??_EDefaultCrashReporter@unity@@UAEPAXI@Z 100374c0 f i CrashHandlerLib:CrashHandler.obj
 0001:000364c0       ??_GCrashReporter@unity@@UAEPAXI@Z 100374c0 f i CrashHandlerLib:CrashHandler.obj
 0001:000364c0       ??_GDefaultCrashReporter@unity@@UAEPAXI@Z 100374c0 f i CrashHandlerLib:CrashHandler.obj
 0001:000364c0       ??_ECrashReporter@unity@@UAEPAXI@Z 100374c0 f i CrashHandlerLib:CrashHandler.obj
 0001:000364e0       ?Uninstall@CrashHandlerImpl@@QAEXXZ 100374e0 f   CrashHandlerLib:CrashHandler.obj
 0001:000364f9       ?Uninstall@CrashHandler@@QAEXXZ 100374f9 f   CrashHandlerLib:CrashHandler.obj
 0001:00036500       ?IsInstalled@CrashHandler@@QBE_NXZ 10037500 f   CrashHandlerLib:CrashHandler.obj
 0001:0003650e       ?SetCrashCallback@CrashHandler@@QAEXP6AXPBD@Z_N@Z 1003750e f   CrashHandlerLib:CrashHandler.obj
 0001:00036525       ??1SFileDetail@@QAE@XZ     10037525 f i CrashHandlerLib:CrashHandler.obj
 0001:00036553       ??$delete_elements@V?$ListIterator@VSFileDetail@@@@@@YAXV?$ListIterator@VSFileDetail@@@@0@Z 10037553 f i CrashHandlerLib:CrashHandler.obj
 0001:00036580       ??_GStringNode@@QAEPAXI@Z  10037580 f i CrashHandlerLib:CrashHandler.obj
 0001:000365a6       ??$delete_elements@V?$ListIterator@VStringNode@@@@@@YAXV?$ListIterator@VStringNode@@@@0@Z 100375a6 f i CrashHandlerLib:CrashHandler.obj
 0001:000365c4       ??$_Find_if@V?$ListIterator@VSFileDetail@@@@Uelement_name@@@std@@YA?AV?$ListIterator@VSFileDetail@@@@V1@0Uelement_name@@@Z 100375c4 f i CrashHandlerLib:CrashHandler.obj
 0001:000365c4       ??$_Find_if@V?$ListIterator@VStringNode@@@@Uelement_name@@@std@@YA?AV?$ListIterator@VStringNode@@@@V1@0Uelement_name@@@Z 100375c4 f i CrashHandlerLib:CrashHandler.obj
 0001:000365f5       ??1CrashHandlerImpl@@QAE@XZ 100375f5 f   CrashHandlerLib:CrashHandler.obj
 0001:0003667d       ??$find_if@V?$ListIterator@VSFileDetail@@@@Uelement_name@@@std@@YA?AV?$ListIterator@VSFileDetail@@@@V1@0Uelement_name@@@Z 1003767d f i CrashHandlerLib:CrashHandler.obj
 0001:0003667d       ??$find_if@V?$ListIterator@VStringNode@@@@Uelement_name@@@std@@YA?AV?$ListIterator@VStringNode@@@@V1@0Uelement_name@@@Z 1003767d f i CrashHandlerLib:CrashHandler.obj
 0001:0003669f       ??1?$auto_ptr@VCrashHandlerImpl@@@std@@QAE@XZ 1003769f f i CrashHandlerLib:CrashHandler.obj
 0001:000366b6       ??$remove_from_intrusive_list@V?$List@VSFileDetail@@@@Uelement_name@@@@YAXAAV?$List@VSFileDetail@@@@Uelement_name@@@Z 100376b6 f i CrashHandlerLib:CrashHandler.obj
 0001:000366f6       ??$remove_from_intrusive_list@V?$List@VStringNode@@@@Uelement_name@@@@YAXAAV?$List@VStringNode@@@@Uelement_name@@@Z 100376f6 f i CrashHandlerLib:CrashHandler.obj
 0001:00036731       ?Report@CrashHandlerImpl@@QAE_NXZ 10037731 f i CrashHandlerLib:CrashHandler.obj
 0001:0003676b       ?SetReportValue@CrashHandlerImpl@@QAEXPB_WPBD@Z 1003776b f i CrashHandlerLib:CrashHandler.obj
 0001:000367fc       ?ReportFile@CrashHandlerImpl@@QAEXPBD0@Z 100377fc f i CrashHandlerLib:CrashHandler.obj
 0001:0003684b       ?AddFolderToDelete@CrashHandlerImpl@@QAEXPBD@Z 1003784b f   CrashHandlerLib:CrashHandler.obj
 0001:00036883       ?RemoveFile@CrashHandlerImpl@@QAEXPBD@Z 10037883 f   CrashHandlerLib:CrashHandler.obj
 0001:00036898       ?RemoveFolderToDelete@CrashHandlerImpl@@QAEXPBD@Z 10037898 f   CrashHandlerLib:CrashHandler.obj
 0001:000368ad       ??1CrashHandler@@QAE@XZ    100378ad f   CrashHandlerLib:CrashHandler.obj
 0001:000368bf       ?RemoveFile@CrashHandler@@QAEXPBD@Z 100378bf f   CrashHandlerLib:CrashHandler.obj
 0001:000368ca       ?AddFolderToDelete@CrashHandler@@QAEXPBD@Z 100378ca f   CrashHandlerLib:CrashHandler.obj
 0001:000368d5       ?RemoveFolderToDelete@CrashHandler@@QAEXPBD@Z 100378d5 f   CrashHandlerLib:CrashHandler.obj
 0001:000368e0       ?ReportFiles@CrashHandlerImpl@@QAEXXZ 100378e0 f   CrashHandlerLib:CrashHandler.obj
 0001:0003691a       ?ReportDeleteFolders@CrashHandlerImpl@@QAEXXZ 1003791a f   CrashHandlerLib:CrashHandler.obj
 0001:00036979       ?ReportMiniDump@CrashHandlerImpl@@QAEXPAU_EXCEPTION_POINTERS@@@Z 10037979 f   CrashHandlerLib:CrashHandler.obj
 0001:000369f6       ?ProcessCrash@CrashHandlerImpl@@QAE_NPAU_EXCEPTION_POINTERS@@@Z 100379f6 f   CrashHandlerLib:CrashHandler.obj
 0001:00036e3b       ??$?HDU?$char_traits@D@std@@V?$allocator@D@1@@std@@YA?AV?$basic_string@DU?$char_traits@D@std@@V?$allocator@D@2@@0@ABV10@D@Z 10037e3b f i CrashHandlerLib:CrashHandler.obj
 0001:00036e7e       ??$?HDU?$char_traits@D@std@@V?$allocator@D@1@@std@@YA?AV?$basic_string@DU?$char_traits@D@std@@V?$allocator@D@2@@0@$$QAV10@0@Z 10037e7e f i CrashHandlerLib:CrashHandler.obj
 0001:00036ecb       ??0SFileDetail@@QAE@PBD0@Z 10037ecb f i CrashHandlerLib:CrashHandler.obj
 0001:00036fae       ??0CrashHandlerImpl@@QAE@PBD000@Z 10037fae f   CrashHandlerLib:CrashHandler.obj
 0001:0003727a       ?Install@CrashHandlerImpl@@QAE_NXZ 1003827a f   CrashHandlerLib:CrashHandler.obj
 0001:000372af       ?AddFile@CrashHandlerImpl@@QAEXPBD0@Z 100382af f   CrashHandlerLib:CrashHandler.obj
 0001:000372e2       ??0CrashHandler@@QAE@PBD000@Z 100382e2 f   CrashHandlerLib:CrashHandler.obj
 0001:0003733f       ?Install@CrashHandler@@QAE_NXZ 1003833f f   CrashHandlerLib:CrashHandler.obj
 0001:00037346       ?AddFile@CrashHandler@@QAEXPBD0@Z 10038346 f   CrashHandlerLib:CrashHandler.obj
 0001:00037351       ?Release@CMiniVersion@@QAEXXZ 10038351 f   CrashHandlerLib:MiniVersion.obj
 0001:00037366       ?GetFileVersion@CMiniVersion@@QAEXPAG@Z 10038366 f   CrashHandlerLib:MiniVersion.obj
 0001:00037387       ?GetProductVersion@CMiniVersion@@QAEXPAG@Z 10038387 f   CrashHandlerLib:MiniVersion.obj
 0001:000373a8       ?GetCompanyName@CMiniVersion@@QAEHPADH@Z 100383a8 f   CrashHandlerLib:MiniVersion.obj
 0001:000373eb       ?GetFileDescription@CMiniVersion@@QAEHPADH@Z 100383eb f   CrashHandlerLib:MiniVersion.obj
 0001:0003742e       ?GetProductName@CMiniVersion@@QAEHPADH@Z 1003842e f   CrashHandlerLib:MiniVersion.obj
 0001:00037471       ?GetFixedInfo@CMiniVersion@@IAEHAAUtagVS_FIXEDFILEINFO@@@Z 10038471 f   CrashHandlerLib:MiniVersion.obj
 0001:000374b1       ?GetStringInfo@CMiniVersion@@IAEHPBDPAD@Z 100384b1 f   CrashHandlerLib:MiniVersion.obj
 0001:0003753f       ?Init@CMiniVersion@@QAE_NXZ 1003853f f   CrashHandlerLib:MiniVersion.obj
 0001:0003763e       ??0CMiniVersion@@QAE@PB_W@Z 1003863e f   CrashHandlerLib:MiniVersion.obj
 0001:000376dd       ?IsDebuggerPresent@DefaultExecutionEnvironment@unity@@UBE_NXZ 100386dd f   CrashHandlerLib:DefaultExecutionEnvironment.obj
 0001:000376ea       ?ReportFile@DefaultCrashReporter@unity@@EAEXABV?$basic_string@DU?$char_traits@D@std@@V?$allocator@D@2@@std@@0@Z 100386ea f   CrashHandlerLib:DefaultCrashReporter.obj
 0001:000376ea       ?SetValue@DefaultCrashReporter@unity@@EAEXABV?$basic_string@DU?$char_traits@D@std@@V?$allocator@D@2@@std@@0@Z 100386ea f   CrashHandlerLib:DefaultCrashReporter.obj
 0001:000376ea       ?StreamAsFile@nsPluginInstanceBase@@UAEXPAU_NPStream@@PBD@Z 100386ea f   UnityWebPlayerPlugin.obj
 0001:000376ed       ?Report@DefaultCrashReporter@unity@@EAE_NABV?$basic_string@DU?$char_traits@D@std@@V?$allocator@D@2@@std@@@Z 100386ed f   CrashHandlerLib:DefaultCrashReporter.obj
 0001:000376f2       ?GetFilePart@crhfileutils@@YAPBDPBD@Z 100386f2 f   CrashHandlerLib:FileUtilities.obj
 0001:0003770d       ?GetTempDirectoryWide@crhfileutils@@YA?AV?$basic_string@_WU?$char_traits@_W@std@@V?$allocator@_W@2@@std@@XZ 1003870d f   CrashHandlerLib:FileUtilities.obj
 0001:0003774b       ??$ConvertWindowsPathNameImpl@V?$basic_string@_WU?$char_traits@_W@std@@V?$allocator@_W@2@@std@@@detail@@YAXABV?$basic_string@_WU?$char_traits@_W@std@@V?$allocator@_W@2@@std@@AAV?$basic_string@DU?$char_traits@D@std@@V?$allocator@D@2@@2@@Z 1003874b f i CrashHandlerLib:FileUtilities.obj
 0001:0003778d       ?GetTempDirectory@crhfileutils@@YA?AV?$basic_string@DU?$char_traits@D@std@@V?$allocator@D@2@@std@@XZ 1003878d f   CrashHandlerLib:FileUtilities.obj
 0001:000377cc       ?GenerateGuidString@crhfileutils@@YA?AV?$basic_string@DU?$char_traits@D@std@@V?$allocator@D@2@@std@@XZ 100387cc f   CrashHandlerLib:FileUtilities.obj
 0001:00037842       ?RemoveDirectoryRecursiveWide@crhfileutils@@YA_NABV?$basic_string@_WU?$char_traits@_W@std@@V?$allocator@_W@2@@std@@@Z 10038842 f   CrashHandlerLib:FileUtilities.obj
 0001:00037a27       ?RemoveDirectoryRecursive@crhfileutils@@YA_NABV?$basic_string@DU?$char_traits@D@std@@V?$allocator@D@2@@std@@@Z 10038a27 f   CrashHandlerLib:FileUtilities.obj
 0001:00037a6a       ?WriteFile@WindowsFileToolImpl@detail@unity@@EAE_NPAXPBXKPAKPAU_OVERLAPPED@@@Z 10038a6a f i CrashHandlerLib:WindowsFileTool.obj
 0001:00037a8c       ??_GWindowsFileToolImpl@detail@unity@@UAEPAXI@Z 10038a8c f i CrashHandlerLib:WindowsFileTool.obj
 0001:00037a8c       ??_EWindowsFileToolImpl@detail@unity@@UAEPAXI@Z 10038a8c f i CrashHandlerLib:WindowsFileTool.obj
 0001:00037a8c       ??_EWindowsFileTool@unity@@UAEPAXI@Z 10038a8c f i CrashHandlerLib:WindowsFileTool.obj
 0001:00037a8c       ??_GWindowsFileTool@unity@@UAEPAXI@Z 10038a8c f i CrashHandlerLib:WindowsFileTool.obj
 0001:00037aac       ?CreateFileA@WindowsFileToolImpl@detail@unity@@EAEPAXABV?$basic_string@DU?$char_traits@D@std@@V?$allocator@D@2@@std@@KKPAU_SECURITY_ATTRIBUTES@@KKPAX@Z 10038aac f i CrashHandlerLib:WindowsFileTool.obj
 0001:00037aff       ?DeleteFileA@WindowsFileToolImpl@detail@unity@@EAEXABV?$basic_string@DU?$char_traits@D@std@@V?$allocator@D@2@@std@@@Z 10038aff f i CrashHandlerLib:WindowsFileTool.obj
 0001:00037b40       ?CreateDirectoryA@WindowsFileToolImpl@detail@unity@@EAE_NABV?$basic_string@DU?$char_traits@D@std@@V?$allocator@D@2@@std@@PAU_SECURITY_ATTRIBUTES@@@Z 10038b40 f i CrashHandlerLib:WindowsFileTool.obj
 0001:00037b8a       ?RemoveDirectoryA@WindowsFileToolImpl@detail@unity@@EAE_NABV?$basic_string@DU?$char_traits@D@std@@V?$allocator@D@2@@std@@@Z 10038b8a f i CrashHandlerLib:WindowsFileTool.obj
 0001:00037bd1       ?CreateWindowsFileTool@unity@@YA?AV?$auto_ptr@VWindowsFileTool@unity@@@std@@XZ 10038bd1 f   CrashHandlerLib:WindowsFileTool.obj
 0001:00037bf3       __cfltcvt_init             10038bf3 f   LIBCMT:_fpinit_.obj
 0001:00037c53       __fpmath                   10038c53 f   LIBCMT:_fpinit_.obj
 0001:00037c70       _floor                     10038c70 f   LIBCMT:_floor_pentium4_.obj
 0001:00037cb0       __floor_pentium4           10038cb0 f   LIBCMT:_floor_pentium4_.obj
 0001:00037da0       _modf                      10038da0 f   LIBCMT:_modf_pentium4_.obj
 0001:00037de0       __modf_pentium4            10038de0 f   LIBCMT:_modf_pentium4_.obj
 0001:00037ef0       __ftol2_sse                10038ef0 f   LIBCMT:ftol2.obj
 0001:00037ef9       __ftol2_pentium4           10038ef9 f   LIBCMT:ftol2.obj
 0001:00037f0c       __ftol2_sse_excpt          10038f0c f   LIBCMT:ftol2.obj
 0001:00037f26       __ftol2                    10038f26 f   LIBCMT:ftol2.obj
 0001:00037fa0       _pow                       10038fa0 f   LIBCMT:_pow_.obj
 0001:00037fe0       __CIpow                    10038fe0 f   LIBCMT:_pow_.obj
 0001:0003801b       __CIpow_default            1003901b f   LIBCMT:_pow_.obj
 0001:00038034       __pow_default              10039034     LIBCMT:_pow_.obj
 0001:00038230       __setjmp3                  10039230 f   LIBCMT:setjmp3.obj
 0001:000382ab       __fsopen                   100392ab f   LIBCMT:fopen.obj
 0001:00038367       _fopen                     10039367 f   LIBCMT:fopen.obj
 0001:0003837e       _ferror                    1003937e f   LIBCMT:feoferr.obj
 0001:000383a6       __vswprintf_helper         100393a6 f   LIBCMT:vswprnc.obj
 0001:0003849c       __vswprintf_c_l            1003949c f   LIBCMT:vswprnc.obj
 0001:000384d0       __SEH_prolog               100394d0 f   LIBCMT:sehprolg.obj
 0001:0003850b       __SEH_epilog               1003950b f   LIBCMT:sehprolg.obj
 0001:00038528       __except_handler3          10039528 f   LIBCMT:exsup3.obj
 0001:00038626       __seh_longjmp_unwind@4     10039626 f   LIBCMT:exsup3.obj
 0001:00038644       __EH_prolog                10039644 f   LIBCMT:ehprolog.obj
 0001:00038670       _strrchr                   10039670 f   LIBCMT:strrchr.obj
 0001:0003869d       __forcdecpt_l              1003969d f   LIBCMT:cvt.obj
 0001:00038711       __cropzeros_l              10039711 f   LIBCMT:cvt.obj
 0001:00038793       __positive                 10039793 f   LIBCMT:cvt.obj
 0001:000387af       __fassign_l                100397af f   LIBCMT:cvt.obj
 0001:000387f1       __fassign                  100397f1 f   LIBCMT:cvt.obj
 0001:0003882a       __forcdecpt                1003982a f   LIBCMT:cvt.obj
 0001:0003883d       __cropzeros                1003983d f   LIBCMT:cvt.obj
 0001:000389b1       __cftoe_l                  100399b1 f   LIBCMT:cvt.obj
 0001:00038a78       __cftoe                    10039a78 f   LIBCMT:cvt.obj
 0001:00038a98       __cftoa_l                  10039a98 f   LIBCMT:cvt.obj
 0001:00038f11       __cftof_l                  10039f11 f   LIBCMT:cvt.obj
 0001:00038fd2       __cftog_l                  10039fd2 f   LIBCMT:cvt.obj
 0001:000390bf       __cfltcvt_l                1003a0bf f   LIBCMT:cvt.obj
 0001:00039147       __cfltcvt                  1003a147 f   LIBCMT:cvt.obj
 0001:0003916a       __setdefaultprecision      1003a16a f   LIBCMT:fp8.obj
 0001:00039192       ___libm_error_support      1003a192 f   LIBCMT:_libm_error_.obj
 0001:0003945e       __sse2_mathfcns_init       1003a45e f   LIBCMT:_mathfcns_.obj
 0001:0003946e       __floor_default            1003a46e f   LIBCMT:_floor_.obj
 0001:00039546       __modf_default             1003a546 f   LIBCMT:_modf_.obj
 0001:0003965b       __set_exp                  1003a65b f   LIBCMT:_util_.obj
 0001:00039688       __sptype                   1003a688 f   LIBCMT:_util_.obj
 0001:000396ee       __decomp                   1003a6ee f   LIBCMT:_util_.obj
 0001:000397b1       __raise_exc_ex             1003a7b1 f   LIBCMT:_fpexcept_.obj
 0001:00039a8d       __raise_exc                1003aa8d f   LIBCMT:_fpexcept_.obj
 0001:00039ab0       __handle_exc               1003aab0 f   LIBCMT:_fpexcept_.obj
 0001:00039c94       __set_errno_from_matherr   1003ac94 f   LIBCMT:_fpexcept_.obj
 0001:00039cc1       __errcode                  1003acc1 f   LIBCMT:_fpexcept_.obj
 0001:00039cf5       __umatherr                 1003acf5 f   LIBCMT:_fpexcept_.obj
 0001:00039d95       __handle_qnan1             1003ad95 f   LIBCMT:_fpexcept_.obj
 0001:00039dea       __except1                  1003adea f   LIBCMT:_fpexcept_.obj
 0001:00039eb4       __statfp                   1003aeb4 f   LIBCMT:_fpctrl_.obj
 0001:00039ec4       __clrfp                    1003aec4 f   LIBCMT:_fpctrl_.obj
 0001:00039ed5       __ctrlfp                   1003aed5 f   LIBCMT:_fpctrl_.obj
 0001:00039f00       __set_statfp               1003af00 f   LIBCMT:_fpctrl_.obj
 0001:00039f58       ___set_fpsr_sse2           1003af58 f   LIBCMT:_fpctrl_.obj
 0001:00039fd0       __CIpow_pentium4           1003afd0 f   LIBCMT:_pow_pentium4_.obj
 0001:00039fe9       __pow_pentium4             1003afe9     LIBCMT:_pow_pentium4_.obj
 0001:0003ab41       __fFEXP                    1003bb41     LIBCMT:_87tran_.obj
 0001:0003ab98       __rtinfpopse               1003bb98     LIBCMT:_87tran_.obj
 0001:0003ab9a       __rtinfnpopse              1003bb9a     LIBCMT:_87tran_.obj
 0001:0003abaa       __fFLN                     1003bbaa     LIBCMT:_87tran_.obj
 0001:0003ac5f       __rtinfpop                 1003bc5f     LIBCMT:_87tran_.obj
 0001:0003ac61       __rtinfnpop                1003bc61     LIBCMT:_87tran_.obj
 0001:0003ac7e       __ffexpm1                  1003bc7e     LIBCMT:_87tran_.obj
 0001:0003ad30       __trandisp1                1003bd30 f   LIBCMT:_87disp_.obj
 0001:0003ad97       __trandisp2                1003bd97 f   LIBCMT:_87disp_.obj
 0001:0003ae23       __rttospopde               1003be23     LIBCMT:_87disp_.obj
 0001:0003ae28       __rttospop                 1003be28     LIBCMT:_87disp_.obj
 0001:0003ae2a       __rtnospop                 1003be2a     LIBCMT:_87disp_.obj
 0001:0003ae2c       __rttosnpop                1003be2c     LIBCMT:_87disp_.obj
 0001:0003ae2d       __rtnospopde               1003be2d     LIBCMT:_87disp_.obj
 0001:0003ae34       __rtzeropop                1003be34     LIBCMT:_87disp_.obj
 0001:0003ae36       __rtzeronpop               1003be36     LIBCMT:_87disp_.obj
 0001:0003ae3b       __rtonepop                 1003be3b     LIBCMT:_87disp_.obj
 0001:0003ae3d       __rtonenpop                1003be3d     LIBCMT:_87disp_.obj
 0001:0003ae42       __tosnan1                  1003be42     LIBCMT:_87disp_.obj
 0001:0003ae6d       __nosnan2                  1003be6d     LIBCMT:_87disp_.obj
 0001:0003ae6f       __tosnan2                  1003be6f     LIBCMT:_87disp_.obj
 0001:0003ae97       __nan2                     1003be97     LIBCMT:_87disp_.obj
 0001:0003aed6       __rtindfpop                1003bed6     LIBCMT:_87disp_.obj
 0001:0003aed8       __rtindfnpop               1003bed8     LIBCMT:_87disp_.obj
 0001:0003aee9       __rttosnpopde              1003bee9     LIBCMT:_87disp_.obj
 0001:0003aef3       __rtchsifneg               1003bef3     LIBCMT:_87disp_.obj
 0001:0003af00       __startTwoArgErrorHandling 1003bf00 f   LIBCMT:_genexcep_.obj
 0001:0003af17       __startOneArgErrorHandling 1003bf17 f   LIBCMT:_genexcep_.obj
 0001:0003af60       __twoToTOS                 1003bf60 f   LIBCMT:_common_.obj
 0001:0003af75       __load_CW                  1003bf75 f   LIBCMT:_common_.obj
 0001:0003af8c       __convertTOStoQNaN         1003bf8c f   LIBCMT:_common_.obj
 0001:0003afa5       __fload_withFB             1003bfa5 f   LIBCMT:_common_.obj
 0001:0003afe8       __checkTOS_withFB          1003bfe8 f   LIBCMT:_common_.obj
 0001:0003affe       __fast_exit                1003bffe f   LIBCMT:_common_.obj
 0001:0003b00b       __math_exit                1003c00b f   LIBCMT:_common_.obj
 0001:0003b035       __check_overflow_exit      1003c035 f   LIBCMT:_common_.obj
 0001:0003b049       __check_range_exit         1003c049 f   LIBCMT:_common_.obj
 0001:0003b0ec       __d_inttype                1003c0ec f   LIBCMT:_powhlp_.obj
 0001:0003b156       __powhlp                   1003c156 f   LIBCMT:_powhlp_.obj
 0001:0003b281       ___strgtold12_l            1003c281 f   LIBCMT:_strgtold_.obj
 0001:0003b95d       __openfile                 1003c95d f   LIBCMT:_open.obj
 0001:0003bc8a       __woutput_l                1003cc8a f   LIBCMT:woutput.obj
 0001:0003c852       _CallDestructExceptionObject 1003d852 f   LIBCMT:calldtor.obj
 0001:0003c950       __ValidateEH3RN            1003d950 f   LIBCMT:eh3valid.obj
 0001:0003cc96       __atodbl_l                 1003dc96 f   LIBCMT:atodbl.obj
 0001:0003cd3e       __atoflt_l                 1003dd3e f   LIBCMT:atodbl.obj
 0001:0003cde6       __fptostr                  1003dde6 f   LIBCMT:_fptostr.obj
 0001:0003ce99       ___dtold                   1003de99 f   LIBCMT:_cfout_.obj
 0001:0003cf4c       __fltout2                  1003df4c f   LIBCMT:_cfout_.obj
 0001:0003cfe0       __alldvrm                  1003dfe0 f   LIBCMT:lldvrm.obj
 0001:0003d0c0       __aullshr                  1003e0c0 f   LIBCMT:ullshr.obj
 0001:0003d0df       __controlfp_s              1003e0df f   LIBCMT:_contrlfp_.obj
 0001:0003d13e       __matherr                  1003e13e f   LIBCMT:_matherr_.obj
 0001:0003d13e       ?ferror_inmem_func@@YAHPAX0@Z 1003e13e f   WebCommonLib:Decompressor.obj
 0001:0003d13e       ?fwrite_inmem_func@@YAKPAX0PBXK@Z 1003e13e f   WebCommonLib:Decompressor.obj
 0001:0003d141       __frnd                     1003e141 f   LIBCMT:_frnd_.obj
 0001:0003d155       __copysign                 1003e155 f   LIBCMT:_ieeemisc_.obj
 0001:0003d17d       __fpclass                  1003e17d f   LIBCMT:_ieeemisc_.obj
 0001:0003d21a       __87except                 1003e21a f   LIBCMT:_87except_.obj
 0001:0003d359       __ld12tod                  1003e359 f   LIBCMT:_intrncvt_.obj
 0001:0003d8aa       __ld12tof                  1003e8aa f   LIBCMT:_intrncvt_.obj
 0001:0003ddfb       ___mtold12                 1003edfb f   LIBCMT:_mantold_.obj
 0001:0003e713       __sopen_helper             1003f713 f   LIBCMT:open.obj
 0001:0003e7d7       __sopen_s                  1003f7d7 f   LIBCMT:open.obj
 0001:0003e7f7       __mbsnbicmp_l              1003f7f7 f   LIBCMT:mbsnbicm.obj
 0001:0003e9fb       __mbsnbicmp                1003f9fb f   LIBCMT:mbsnbicm.obj
 0001:0003ea15       __mbsnbcmp_l               1003fa15 f   LIBCMT:mbsnbcmp.obj
 0001:0003eb61       __mbsnbcmp                 1003fb61 f   LIBCMT:mbsnbcmp.obj
 0001:0003eb7b       __fputwc_nolock            1003fb7b f   LIBCMT:fputwc.obj
 0001:0003ed02       _$I10_OUTPUT               1003fd02 f   LIBCMT:_x10fout_.obj
 0001:0003f728       __control87                10040728 f i LIBCMT:_ieee87_.obj
 0001:0003fa3a       __flswbuf                  10040a3a f   LIBCMT:_flswbuf.obj
 0001:0003fbae       _VerQueryValueA@16         10040bae f   version:VERSION.dll
 0001:0003fbb4       _GetFileVersionInfoW@16    10040bb4 f   version:VERSION.dll
 0001:0003fbba       _GetFileVersionInfoSizeW@8 10040bba f   version:VERSION.dll
 0002:00000000       __imp__GetUserNameA@8      10041000     advapi32:ADVAPI32.dll
 0002:00000004       __imp__OpenProcessToken@12 10041004     advapi32:ADVAPI32.dll
 0002:00000008       __imp__OpenThreadToken@16  10041008     advapi32:ADVAPI32.dll
 0002:0000000c       __imp__GetTokenInformation@20 1004100c     advapi32:ADVAPI32.dll
 0002:00000010       __imp__RegQueryValueExW@24 10041010     advapi32:ADVAPI32.dll
 0002:00000014       __imp__RegOpenKeyW@12      10041014     advapi32:ADVAPI32.dll
 0002:00000018       __imp__AllocateAndInitializeSid@44 10041018     advapi32:ADVAPI32.dll
 0002:0000001c       __imp__FreeSid@4           1004101c     advapi32:ADVAPI32.dll
 0002:00000020       __imp__CheckTokenMembership@12 10041020     advapi32:ADVAPI32.dll
 0002:00000024       __imp__RegCloseKey@4       10041024     advapi32:ADVAPI32.dll
 0002:00000028       __imp__ConvertSidToStringSidW@8 10041028     advapi32:ADVAPI32.dll
 0002:0000002c       __imp__ConvertStringSecurityDescriptorToSecurityDescriptorW@16 1004102c     advapi32:ADVAPI32.dll
 0002:00000030       __imp__CryptGetHashParam@20 10041030     advapi32:ADVAPI32.dll
 0002:00000034       __imp__CryptAcquireContextW@20 10041034     advapi32:ADVAPI32.dll
 0002:00000038       __imp__CryptVerifySignatureW@24 10041038     advapi32:ADVAPI32.dll
 0002:0000003c       __imp__CryptReleaseContext@8 1004103c     advapi32:ADVAPI32.dll
 0002:00000040       __imp__CryptImportKey@24   10041040     advapi32:ADVAPI32.dll
 0002:00000044       __imp__RegSetValueExW@24   10041044     advapi32:ADVAPI32.dll
 0002:00000048       __imp__RegOpenKeyExW@20    10041048     advapi32:ADVAPI32.dll
 0002:0000004c       __imp__RegCreateKeyExW@36  1004104c     advapi32:ADVAPI32.dll
 0002:00000050       __imp__GetLengthSid@4      10041050     advapi32:ADVAPI32.dll
 0002:00000054       __imp__GetSidSubAuthorityCount@4 10041054     advapi32:ADVAPI32.dll
 0002:00000058       __imp__GetSidSubAuthority@8 10041058     advapi32:ADVAPI32.dll
 0002:0000005c       __imp__CryptHashData@16    1004105c     advapi32:ADVAPI32.dll
 0002:00000060       __imp__CryptDestroyHash@4  10041060     advapi32:ADVAPI32.dll
 0002:00000064       __imp__CryptDestroyKey@4   10041064     advapi32:ADVAPI32.dll
 0002:00000068       __imp__CryptCreateHash@20  10041068     advapi32:ADVAPI32.dll
 0002:0000006c       \177ADVAPI32_NULL_THUNK_DATA 1004106c     advapi32:ADVAPI32.dll
 0002:00000070       __imp__CreateCompatibleBitmap@12 10041070     gdi32:GDI32.dll
 0002:00000074       __imp__DeleteDC@4          10041074     gdi32:GDI32.dll
 0002:00000078       __imp__BitBlt@36           10041078     gdi32:GDI32.dll
 0002:0000007c       __imp__Polygon@12          1004107c     gdi32:GDI32.dll
 0002:00000080       __imp__Polyline@12         10041080     gdi32:GDI32.dll
 0002:00000084       __imp__CreatePen@12        10041084     gdi32:GDI32.dll
 0002:00000088       __imp__CreateCompatibleDC@4 10041088     gdi32:GDI32.dll
 0002:0000008c       __imp__SetTextColor@8      1004108c     gdi32:GDI32.dll
 0002:00000090       __imp__SetBkMode@8         10041090     gdi32:GDI32.dll
 0002:00000094       __imp__GetObjectW@12       10041094     gdi32:GDI32.dll
 0002:00000098       __imp__GetTextExtentPoint32W@16 10041098     gdi32:GDI32.dll
 0002:0000009c       __imp__GetTextMetricsW@8   1004109c     gdi32:GDI32.dll
 0002:000000a0       __imp__SelectObject@8      100410a0     gdi32:GDI32.dll
 0002:000000a4       __imp__DeleteObject@4      100410a4     gdi32:GDI32.dll
 0002:000000a8       __imp__CreateFontIndirectW@4 100410a8     gdi32:GDI32.dll
 0002:000000ac       __imp__CreateDIBSection@24 100410ac     gdi32:GDI32.dll
 0002:000000b0       __imp__GetCurrentObject@8  100410b0     gdi32:GDI32.dll
 0002:000000b4       __imp__Rectangle@20        100410b4     gdi32:GDI32.dll
 0002:000000b8       __imp__CreateFontW@56      100410b8     gdi32:GDI32.dll
 0002:000000bc       __imp__CreateSolidBrush@4  100410bc     gdi32:GDI32.dll
 0002:000000c0       \177GDI32_NULL_THUNK_DATA  100410c0     gdi32:GDI32.dll
 0002:000000c4       __imp__SetEndOfFile@4      100410c4     kernel32:KERNEL32.dll
 0002:000000c8       __imp__SetStdHandle@8      100410c8     kernel32:KERNEL32.dll
 0002:000000cc       __imp__WriteConsoleW@20    100410cc     kernel32:KERNEL32.dll
 0002:000000d0       __imp__DisableThreadLibraryCalls@4 100410d0     kernel32:KERNEL32.dll
 0002:000000d4       __imp__GetTickCount@0      100410d4     kernel32:KERNEL32.dll
 0002:000000d8       __imp__CreateFileA@28      100410d8     kernel32:KERNEL32.dll
 0002:000000dc       __imp__lstrcpynW@12        100410dc     kernel32:KERNEL32.dll
 0002:000000e0       __imp__lstrcpynA@12        100410e0     kernel32:KERNEL32.dll
 0002:000000e4       __imp__SetErrorMode@4      100410e4     kernel32:KERNEL32.dll
 0002:000000e8       __imp__lstrcpyA@8          100410e8     kernel32:KERNEL32.dll
 0002:000000ec       __imp__GlobalMemoryStatus@4 100410ec     kernel32:KERNEL32.dll
 0002:000000f0       __imp__GetSystemInfo@4     100410f0     kernel32:KERNEL32.dll
 0002:000000f4       __imp__VirtualQuery@12     100410f4     kernel32:KERNEL32.dll
 0002:000000f8       __imp__GetFileSize@8       100410f8     kernel32:KERNEL32.dll
 0002:000000fc       __imp__GetFileTime@16      100410fc     kernel32:KERNEL32.dll
 0002:00000100       __imp__lstrlenA@4          10041100     kernel32:KERNEL32.dll
 0002:00000104       __imp__FileTimeToLocalFileTime@8 10041104     kernel32:KERNEL32.dll
 0002:00000108       __imp__GetProcessHeap@0    10041108     kernel32:KERNEL32.dll
 0002:0000010c       __imp__FileTimeToDosDateTime@12 1004110c     kernel32:KERNEL32.dll
 0002:00000110       __imp__SetEnvironmentVariableA@8 10041110     kernel32:KERNEL32.dll
 0002:00000114       __imp__CompareStringW@24   10041114     kernel32:KERNEL32.dll
 0002:00000118       __imp__CreateTimerQueue@0  10041118     kernel32:KERNEL32.dll
 0002:0000011c       __imp__DeleteTimerQueueEx@8 1004111c     kernel32:KERNEL32.dll
 0002:00000120       __imp__FreeLibrary@4       10041120     kernel32:KERNEL32.dll
 0002:00000124       __imp__GetCurrentProcess@0 10041124     kernel32:KERNEL32.dll
 0002:00000128       __imp__SetEvent@4          10041128     kernel32:KERNEL32.dll
 0002:0000012c       __imp__GetCurrentThread@0  1004112c     kernel32:KERNEL32.dll
 0002:00000130       __imp__WideCharToMultiByte@32 10041130     kernel32:KERNEL32.dll
 0002:00000134       __imp__LoadLibraryW@4      10041134     kernel32:KERNEL32.dll
 0002:00000138       __imp__GetModuleFileNameW@12 10041138     kernel32:KERNEL32.dll
 0002:0000013c       __imp__ChangeTimerQueueTimer@16 1004113c     kernel32:KERNEL32.dll
 0002:00000140       __imp__GetProcAddress@8    10041140     kernel32:KERNEL32.dll
 0002:00000144       __imp__CreateTimerQueueTimer@28 10041144     kernel32:KERNEL32.dll
 0002:00000148       __imp__CreateEventW@16     10041148     kernel32:KERNEL32.dll
 0002:0000014c       __imp__SetCurrentDirectoryW@4 1004114c     kernel32:KERNEL32.dll
 0002:00000150       __imp__WaitForMultipleObjects@16 10041150     kernel32:KERNEL32.dll
 0002:00000154       __imp__GetCurrentThreadId@0 10041154     kernel32:KERNEL32.dll
 0002:00000158       __imp__CloseHandle@4       10041158     kernel32:KERNEL32.dll
 0002:0000015c       __imp__GetVersion@0        1004115c     kernel32:KERNEL32.dll
 0002:00000160       __imp__DeleteFileW@4       10041160     kernel32:KERNEL32.dll
 0002:00000164       __imp__FindResourceW@12    10041164     kernel32:KERNEL32.dll
 0002:00000168       __imp__LoadResource@8      10041168     kernel32:KERNEL32.dll
 0002:0000016c       __imp__SizeofResource@8    1004116c     kernel32:KERNEL32.dll
 0002:00000170       __imp__LockResource@4      10041170     kernel32:KERNEL32.dll
 0002:00000174       __imp__QueryPerformanceCounter@4 10041174     kernel32:KERNEL32.dll
 0002:00000178       __imp__GetVersionExW@4     10041178     kernel32:KERNEL32.dll
 0002:0000017c       __imp__QueryPerformanceFrequency@4 1004117c     kernel32:KERNEL32.dll
 0002:00000180       __imp__InitializeCriticalSectionAndSpinCount@8 10041180     kernel32:KERNEL32.dll
 0002:00000184       __imp__LeaveCriticalSection@4 10041184     kernel32:KERNEL32.dll
 0002:00000188       __imp__EnterCriticalSection@4 10041188     kernel32:KERNEL32.dll
 0002:0000018c       __imp__DeleteCriticalSection@4 1004118c     kernel32:KERNEL32.dll
 0002:00000190       __imp__WaitForSingleObject@8 10041190     kernel32:KERNEL32.dll
 0002:00000194       __imp__WaitNamedPipeW@8    10041194     kernel32:KERNEL32.dll
 0002:00000198       __imp__InitializeCriticalSection@4 10041198     kernel32:KERNEL32.dll
 0002:0000019c       __imp__Sleep@4             1004119c     kernel32:KERNEL32.dll
 0002:000001a0       __imp__ReadFile@20         100411a0     kernel32:KERNEL32.dll
 0002:000001a4       __imp__GetOverlappedResult@16 100411a4     kernel32:KERNEL32.dll
 0002:000001a8       __imp__GetLastError@0      100411a8     kernel32:KERNEL32.dll
 0002:000001ac       __imp__LocalAlloc@8        100411ac     kernel32:KERNEL32.dll
 0002:000001b0       __imp__LocalFree@4         100411b0     kernel32:KERNEL32.dll
 0002:000001b4       __imp__CreateThread@24     100411b4     kernel32:KERNEL32.dll
 0002:000001b8       __imp__CopyFileW@12        100411b8     kernel32:KERNEL32.dll
 0002:000001bc       __imp__WaitForSingleObjectEx@12 100411bc     kernel32:KERNEL32.dll
 0002:000001c0       __imp__CreateMutexA@12     100411c0     kernel32:KERNEL32.dll
 0002:000001c4       __imp__ReleaseMutex@4      100411c4     kernel32:KERNEL32.dll
 0002:000001c8       __imp__ConnectNamedPipe@8  100411c8     kernel32:KERNEL32.dll
 0002:000001cc       __imp__CreateNamedPipeW@32 100411cc     kernel32:KERNEL32.dll
 0002:000001d0       __imp__WriteFile@20        100411d0     kernel32:KERNEL32.dll
 0002:000001d4       __imp__CreateFileW@28      100411d4     kernel32:KERNEL32.dll
 0002:000001d8       __imp__SetNamedPipeHandleState@16 100411d8     kernel32:KERNEL32.dll
 0002:000001dc       __imp__lstrcatW@8          100411dc     kernel32:KERNEL32.dll
 0002:000001e0       __imp__lstrcpyW@8          100411e0     kernel32:KERNEL32.dll
 0002:000001e4       __imp__FindFirstFileW@8    100411e4     kernel32:KERNEL32.dll
 0002:000001e8       __imp__MoveFileExW@12      100411e8     kernel32:KERNEL32.dll
 0002:000001ec       __imp__CreateDirectoryW@8  100411ec     kernel32:KERNEL32.dll
 0002:000001f0       __imp__GetTempPathW@8      100411f0     kernel32:KERNEL32.dll
 0002:000001f4       __imp__FindClose@4         100411f4     kernel32:KERNEL32.dll
 0002:000001f8       __imp__RemoveDirectoryW@4  100411f8     kernel32:KERNEL32.dll
 0002:000001fc       __imp__FindNextFileW@8     100411fc     kernel32:KERNEL32.dll
 0002:00000200       __imp__SetFileAttributesW@8 10041200     kernel32:KERNEL32.dll
 0002:00000204       __imp__GetModuleHandleW@4  10041204     kernel32:KERNEL32.dll
 0002:00000208       __imp__GetFullPathNameW@16 10041208     kernel32:KERNEL32.dll
 0002:0000020c       __imp__CreateMutexW@12     1004120c     kernel32:KERNEL32.dll
 0002:00000210       __imp__CopyFileExW@24      10041210     kernel32:KERNEL32.dll
 0002:00000214       __imp__FindFirstFileExW@24 10041214     kernel32:KERNEL32.dll
 0002:00000218       __imp__TerminateThread@8   10041218     kernel32:KERNEL32.dll
 0002:0000021c       __imp__lstrlenW@4          1004121c     kernel32:KERNEL32.dll
 0002:00000220       __imp__OpenMutexW@12       10041220     kernel32:KERNEL32.dll
 0002:00000224       __imp__lstrcmpiW@8         10041224     kernel32:KERNEL32.dll
 0002:00000228       __imp__GetVolumeInformationW@32 10041228     kernel32:KERNEL32.dll
 0002:0000022c       __imp__ExpandEnvironmentStringsW@12 1004122c     kernel32:KERNEL32.dll
 0002:00000230       __imp__EncodePointer@4     10041230     kernel32:KERNEL32.dll
 0002:00000234       __imp__DecodePointer@4     10041234     kernel32:KERNEL32.dll
 0002:00000238       __imp__GetCommandLineA@0   10041238     kernel32:KERNEL32.dll
 0002:0000023c       __imp__HeapFree@12         1004123c     kernel32:KERNEL32.dll
 0002:00000240       __imp__HeapAlloc@12        10041240     kernel32:KERNEL32.dll
 0002:00000244       __imp__GetSystemTimeAsFileTime@4 10041244     kernel32:KERNEL32.dll
 0002:00000248       __imp__RtlUnwind@16        10041248     kernel32:KERNEL32.dll
 0002:0000024c       __imp__HeapReAlloc@16      1004124c     kernel32:KERNEL32.dll
 0002:00000250       __imp__RaiseException@16   10041250     kernel32:KERNEL32.dll
 0002:00000254       __imp__IsProcessorFeaturePresent@4 10041254     kernel32:KERNEL32.dll
 0002:00000258       __imp__GetCPInfo@8         10041258     kernel32:KERNEL32.dll
 0002:0000025c       __imp__InterlockedIncrement@4 1004125c     kernel32:KERNEL32.dll
 0002:00000260       __imp__InterlockedDecrement@4 10041260     kernel32:KERNEL32.dll
 0002:00000264       __imp__GetACP@0            10041264     kernel32:KERNEL32.dll
 0002:00000268       __imp__GetOEMCP@0          10041268     kernel32:KERNEL32.dll
 0002:0000026c       __imp__IsValidCodePage@4   1004126c     kernel32:KERNEL32.dll
 0002:00000270       __imp__TlsAlloc@0          10041270     kernel32:KERNEL32.dll
 0002:00000274       __imp__TlsGetValue@4       10041274     kernel32:KERNEL32.dll
 0002:00000278       __imp__TlsSetValue@8       10041278     kernel32:KERNEL32.dll
 0002:0000027c       __imp__TlsFree@4           1004127c     kernel32:KERNEL32.dll
 0002:00000280       __imp__SetLastError@4      10041280     kernel32:KERNEL32.dll
 0002:00000284       __imp__UnhandledExceptionFilter@4 10041284     kernel32:KERNEL32.dll
 0002:00000288       __imp__SetUnhandledExceptionFilter@4 10041288     kernel32:KERNEL32.dll
 0002:0000028c       __imp__IsDebuggerPresent@0 1004128c     kernel32:KERNEL32.dll
 0002:00000290       __imp__TerminateProcess@8  10041290     kernel32:KERNEL32.dll
 0002:00000294       __imp__HeapSize@12         10041294     kernel32:KERNEL32.dll
 0002:00000298       __imp__ExitProcess@4       10041298     kernel32:KERNEL32.dll
 0002:0000029c       __imp__LCMapStringW@24     1004129c     kernel32:KERNEL32.dll
 0002:000002a0       __imp__GetStdHandle@4      100412a0     kernel32:KERNEL32.dll
 0002:000002a4       __imp__SetHandleCount@4    100412a4     kernel32:KERNEL32.dll
 0002:000002a8       __imp__GetFileType@4       100412a8     kernel32:KERNEL32.dll
 0002:000002ac       __imp__GetStartupInfoW@4   100412ac     kernel32:KERNEL32.dll
 0002:000002b0       __imp__GetModuleFileNameA@12 100412b0     kernel32:KERNEL32.dll
 0002:000002b4       __imp__FreeEnvironmentStringsW@4 100412b4     kernel32:KERNEL32.dll
 0002:000002b8       __imp__GetEnvironmentStringsW@0 100412b8     kernel32:KERNEL32.dll
 0002:000002bc       __imp__HeapCreate@12       100412bc     kernel32:KERNEL32.dll
 0002:000002c0       __imp__HeapDestroy@4       100412c0     kernel32:KERNEL32.dll
 0002:000002c4       __imp__GetCurrentProcessId@0 100412c4     kernel32:KERNEL32.dll
 0002:000002c8       __imp__GetConsoleCP@0      100412c8     kernel32:KERNEL32.dll
 0002:000002cc       __imp__GetConsoleMode@8    100412cc     kernel32:KERNEL32.dll
 0002:000002d0       __imp__FlushFileBuffers@4  100412d0     kernel32:KERNEL32.dll
 0002:000002d4       __imp__GetTimeZoneInformation@4 100412d4     kernel32:KERNEL32.dll
 0002:000002d8       __imp__SetFilePointer@16   100412d8     kernel32:KERNEL32.dll
 0002:000002dc       __imp__GetStringTypeW@16   100412dc     kernel32:KERNEL32.dll
 0002:000002e0       __imp__MultiByteToWideChar@24 100412e0     kernel32:KERNEL32.dll
 0002:000002e4       \177KERNEL32_NULL_THUNK_DATA 100412e4     kernel32:KERNEL32.dll
 0002:000002e8       __imp__AlphaBlend@44       100412e8     MSImg32:MSIMG32.dll
 0002:000002ec       \177MSIMG32_NULL_THUNK_DATA 100412ec     MSImg32:MSIMG32.dll
 0002:000002f0       __imp__ShellExecuteExW@4   100412f0     shell32:SHELL32.dll
 0002:000002f4       __imp__SHGetFolderPathW@20 100412f4     shell32:SHELL32.dll
 0002:000002f8       \177SHELL32_NULL_THUNK_DATA 100412f8     shell32:SHELL32.dll
 0002:000002fc       __imp__PathSkipRootW@4     100412fc     WebCommonLib:SHLWAPI.dll
 0002:00000300       __imp__PathRemoveFileSpecW@4 10041300     WebCommonLib:SHLWAPI.dll
 0002:00000304       __imp__PathCombineW@12     10041304     WebCommonLib:SHLWAPI.dll
 0002:00000308       __imp__PathAppendW@8       10041308     WebCommonLib:SHLWAPI.dll
 0002:0000030c       __imp__PathStripToRootW@4  1004130c     WebCommonLib:SHLWAPI.dll
 0002:00000310       \177SHLWAPI_NULL_THUNK_DATA 10041310     WebCommonLib:SHLWAPI.dll
 0002:00000314       __imp__CallWindowProcW@20  10041314     user32:USER32.dll
 0002:00000318       __imp__GetSystemMetrics@4  10041318     user32:USER32.dll
 0002:0000031c       __imp__GetWindowTextW@12   1004131c     user32:USER32.dll
 0002:00000320       __imp__LoadCursorW@8       10041320     user32:USER32.dll
 0002:00000324       __imp__SetCursor@4         10041324     user32:USER32.dll
 0002:00000328       __imp__GetForegroundWindow@0 10041328     user32:USER32.dll
 0002:0000032c       __imp__GetParent@4         1004132c     user32:USER32.dll
 0002:00000330       __imp__MessageBoxW@16      10041330     user32:USER32.dll
 0002:00000334       __imp__wsprintfW           10041334     user32:USER32.dll
 0002:00000338       __imp__AppendMenuW@16      10041338     user32:USER32.dll
 0002:0000033c       __imp__GetSubMenu@8        1004133c     user32:USER32.dll
 0002:00000340       __imp__EnableMenuItem@12   10041340     user32:USER32.dll
 0002:00000344       __imp__LoadMenuW@8         10041344     user32:USER32.dll
 0002:00000348       __imp__GetAsyncKeyState@4  10041348     user32:USER32.dll
 0002:0000034c       __imp__GetWindowRect@8     1004134c     user32:USER32.dll
 0002:00000350       __imp__MessageBoxA@16      10041350     user32:USER32.dll
 0002:00000354       __imp__GetClientRect@8     10041354     user32:USER32.dll
 0002:00000358       __imp__DrawTextW@20        10041358     user32:USER32.dll
 0002:0000035c       __imp__InflateRect@12      1004135c     user32:USER32.dll
 0002:00000360       __imp__GetSysColorBrush@4  10041360     user32:USER32.dll
 0002:00000364       __imp__FillRect@12         10041364     user32:USER32.dll
 0002:00000368       __imp__GetSysColor@4       10041368     user32:USER32.dll
 0002:0000036c       __imp__InvalidateRect@12   1004136c     user32:USER32.dll
 0002:00000370       __imp__PtInRect@12         10041370     user32:USER32.dll
 0002:00000374       __imp__AdjustWindowRectEx@16 10041374     user32:USER32.dll
 0002:00000378       __imp__CopyRect@8          10041378     user32:USER32.dll
 0002:0000037c       __imp__ReleaseDC@8         1004137c     user32:USER32.dll
 0002:00000380       __imp__SetRect@20          10041380     user32:USER32.dll
 0002:00000384       __imp__GetDC@4             10041384     user32:USER32.dll
 0002:00000388       __imp__IsRectEmpty@4       10041388     user32:USER32.dll
 0002:0000038c       __imp__GetMenuItemCount@4  1004138c     user32:USER32.dll
 0002:00000390       __imp__EndPaint@8          10041390     user32:USER32.dll
 0002:00000394       __imp__BeginPaint@8        10041394     user32:USER32.dll
 0002:00000398       __imp__ShowWindow@8        10041398     user32:USER32.dll
 0002:0000039c       __imp__SetWindowPos@28     1004139c     user32:USER32.dll
 0002:000003a0       __imp__DestroyWindow@4     100413a0     user32:USER32.dll
 0002:000003a4       __imp__CreateWindowExW@48  100413a4     user32:USER32.dll
 0002:000003a8       __imp__UnregisterClassW@8  100413a8     user32:USER32.dll
 0002:000003ac       __imp__RegisterClassExW@4  100413ac     user32:USER32.dll
 0002:000003b0       __imp__LoadImageW@24       100413b0     user32:USER32.dll
 0002:000003b4       __imp__wvsprintfA@12       100413b4     user32:USER32.dll
 0002:000003b8       __imp__wsprintfA           100413b8     user32:USER32.dll
 0002:000003bc       __imp__PostMessageW@16     100413bc     user32:USER32.dll
 0002:000003c0       __imp__IsWindow@4          100413c0     user32:USER32.dll
 0002:000003c4       __imp__CreatePopupMenu@0   100413c4     user32:USER32.dll
 0002:000003c8       __imp__RemoveMenu@12       100413c8     user32:USER32.dll
 0002:000003cc       __imp__LoadBitmapW@8       100413cc     user32:USER32.dll
 0002:000003d0       __imp__SystemParametersInfoW@16 100413d0     user32:USER32.dll
 0002:000003d4       __imp__GetWindowLongW@8    100413d4     user32:USER32.dll
 0002:000003d8       __imp__SetWindowLongW@12   100413d8     user32:USER32.dll
 0002:000003dc       __imp__DestroyMenu@4       100413dc     user32:USER32.dll
 0002:000003e0       __imp__GetClassLongW@8     100413e0     user32:USER32.dll
 0002:000003e4       __imp__GetAncestor@8       100413e4     user32:USER32.dll
 0002:000003e8       __imp__ClientToScreen@8    100413e8     user32:USER32.dll
 0002:000003ec       __imp__WindowFromPoint@8   100413ec     user32:USER32.dll
 0002:000003f0       __imp__DefWindowProcW@16   100413f0     user32:USER32.dll
 0002:000003f4       __imp__SendMessageW@16     100413f4     user32:USER32.dll
 0002:000003f8       __imp__SetCapture@4        100413f8     user32:USER32.dll
 0002:000003fc       __imp__SendInput@12        100413fc     user32:USER32.dll
 0002:00000400       __imp__ReleaseCapture@0    10041400     user32:USER32.dll
 0002:00000404       __imp__GetMenuItemInfoW@16 10041404     user32:USER32.dll
 0002:00000408       \177USER32_NULL_THUNK_DATA 10041408     user32:USER32.dll
 0002:0000040c       __imp__GetFileVersionInfoSizeW@8 1004140c     version:VERSION.dll
 0002:00000410       __imp__GetFileVersionInfoW@16 10041410     version:VERSION.dll
 0002:00000414       __imp__VerQueryValueA@16   10041414     version:VERSION.dll
 0002:00000418       \177VERSION_NULL_THUNK_DATA 10041418     version:VERSION.dll
 0002:0000041c       __imp__timeGetTime@0       1004141c     winmm:WINMM.dll
 0002:00000420       \177WINMM_NULL_THUNK_DATA  10041420     winmm:WINMM.dll
 0002:00000424       __imp__CoTaskMemFree@4     10041424     ole32:ole32.dll
 0002:00000428       __imp__CoCreateGuid@4      10041428     ole32:ole32.dll
 0002:0000042c       __imp__StringFromGUID2@12  1004142c     ole32:ole32.dll
 0002:00000430       \177ole32_NULL_THUNK_DATA  10041430     ole32:ole32.dll
 0002:00000434       ___xc_a                    10041434     LIBCMT:crt0init.obj
 0002:00000474       ___xc_z                    10041474     LIBCMT:crt0init.obj
 0002:00000478       ___xi_a                    10041478     LIBCMT:crt0init.obj
 0002:00000490       ___xi_z                    10041490     LIBCMT:crt0init.obj
 0002:00000494       ___xp_a                    10041494     LIBCMT:crt0init.obj
 0002:000004a0       ___xp_z                    100414a0     LIBCMT:crt0init.obj
 0002:000004a4       ___xt_a                    100414a4     LIBCMT:crt0init.obj
 0002:000004a8       ___xt_z                    100414a8     LIBCMT:crt0init.obj
 0002:000004d0       ??_7logic_error@std@@6B@   100414d0     libcpmt:xthrow.obj
 0002:000004dc       ??_7length_error@std@@6B@  100414dc     libcpmt:xthrow.obj
 0002:000004e8       ??_7out_of_range@std@@6B@  100414e8     libcpmt:xthrow.obj
 0002:000004f4       ??_7exception@std@@6B@     100414f4     LIBCMT:stdexcpt.obj
 0002:000004fc       ??_C@_0BC@EOODALEL@Unknown?5exception?$AA@ 100414fc     LIBCMT:stdexcpt.obj
 0002:00000514       ??_7type_info@@6B@         10041514     LIBCMT:typinfo.obj
 0002:0000051c       ??_7bad_alloc@std@@6B@     1004151c     LIBCMT:new.obj
 0002:00000524       ??_C@_0P@GHFPNOJB@bad?5allocation?$AA@ 10041524     LIBCMT:new.obj
 0002:00000534       __pDefaultRawDllMain       10041534     LIBCMT:dllcrt0.obj
 0002:00000534       __pRawDllMain              10041534     LIBCMT:dllcrt0.obj
 0002:00000558       ??_C@_1BC@GDGBMEMK@?$AAH?$AAH?$AA?3?$AAm?$AAm?$AA?3?$AAs?$AAs?$AA?$AA@ 10041558     LIBCMT:nlsdata2.obj
 0002:0000056c       ??_C@_1CI@KNAKOEBC@?$AAd?$AAd?$AAd?$AAd?$AA?0?$AA?5?$AAM?$AAM?$AAM?$AAM?$AA?5?$AAd?$AAd?$AA?0?$AA?5?$AAy?$AAy?$AAy?$AAy?$AA?$AA@ 1004156c     LIBCMT:nlsdata2.obj
 0002:00000594       ??_C@_1BC@IEBCMHCM@?$AAM?$AAM?$AA?1?$AAd?$AAd?$AA?1?$AAy?$AAy?$AA?$AA@ 10041594     LIBCMT:nlsdata2.obj
 0002:000005a8       ??_C@_15CLMNNGEL@?$AAP?$AAM?$AA?$AA@ 100415a8     LIBCMT:nlsdata2.obj
 0002:000005b0       ??_C@_15ODEHAHHF@?$AAA?$AAM?$AA?$AA@ 100415b0     LIBCMT:nlsdata2.obj
 0002:000005b8       ??_C@_1BC@FEMKIFH@?$AAD?$AAe?$AAc?$AAe?$AAm?$AAb?$AAe?$AAr?$AA?$AA@ 100415b8     LIBCMT:nlsdata2.obj
 0002:000005cc       ??_C@_1BC@BGLIFPF@?$AAN?$AAo?$AAv?$AAe?$AAm?$AAb?$AAe?$AAr?$AA?$AA@ 100415cc     LIBCMT:nlsdata2.obj
 0002:000005e0       ??_C@_1BA@EPANDLNG@?$AAO?$AAc?$AAt?$AAo?$AAb?$AAe?$AAr?$AA?$AA@ 100415e0     LIBCMT:nlsdata2.obj
 0002:000005f0       ??_C@_1BE@DKAAMBJL@?$AAS?$AAe?$AAp?$AAt?$AAe?$AAm?$AAb?$AAe?$AAr?$AA?$AA@ 100415f0     LIBCMT:nlsdata2.obj
 0002:00000604       ??_C@_1O@PAHLKOAC@?$AAA?$AAu?$AAg?$AAu?$AAs?$AAt?$AA?$AA@ 10041604     LIBCMT:nlsdata2.obj
 0002:00000614       ??_C@_19BIFMLPCD@?$AAJ?$AAu?$AAl?$AAy?$AA?$AA@ 10041614     LIBCMT:nlsdata2.obj
 0002:00000620       ??_C@_19EPFLPGAP@?$AAJ?$AAu?$AAn?$AAe?$AA?$AA@ 10041620     LIBCMT:nlsdata2.obj
 0002:0000062c       ??_C@_1M@GJNLMHFD@?$AAA?$AAp?$AAr?$AAi?$AAl?$AA?$AA@ 1004162c     LIBCMT:nlsdata2.obj
 0002:00000638       ??_C@_1M@IKEENEDF@?$AAM?$AAa?$AAr?$AAc?$AAh?$AA?$AA@ 10041638     LIBCMT:nlsdata2.obj
 0002:00000644       ??_C@_1BC@JGDDFFAM@?$AAF?$AAe?$AAb?$AAr?$AAu?$AAa?$AAr?$AAy?$AA?$AA@ 10041644     LIBCMT:nlsdata2.obj
 0002:00000658       ??_C@_1BA@EFMEIEBA@?$AAJ?$AAa?$AAn?$AAu?$AAa?$AAr?$AAy?$AA?$AA@ 10041658     LIBCMT:nlsdata2.obj
 0002:00000668       ??_C@_17EGKACKIF@?$AAD?$AAe?$AAc?$AA?$AA@ 10041668     LIBCMT:nlsdata2.obj
 0002:00000670       ??_C@_17BBDMLCIG@?$AAN?$AAo?$AAv?$AA?$AA@ 10041670     LIBCMT:nlsdata2.obj
 0002:00000678       ??_C@_17FNLKOI@?$AAO?$AAc?$AAt?$AA?$AA@ 10041678     LIBCMT:nlsdata2.obj
 0002:00000680       ??_C@_17HCHCOKMG@?$AAS?$AAe?$AAp?$AA?$AA@ 10041680     LIBCMT:nlsdata2.obj
 0002:00000688       ??_C@_17ICPELBCN@?$AAA?$AAu?$AAg?$AA?$AA@ 10041688     LIBCMT:nlsdata2.obj
 0002:00000690       ??_C@_17IJPCKHK@?$AAJ?$AAu?$AAl?$AA?$AA@ 10041690     LIBCMT:nlsdata2.obj
 0002:00000698       ??_C@_17KCJGOCPB@?$AAJ?$AAu?$AAn?$AA?$AA@ 10041698     LIBCMT:nlsdata2.obj
 0002:000006a0       ??_C@_17PNNKMEED@?$AAM?$AAa?$AAy?$AA?$AA@ 100416a0     LIBCMT:nlsdata2.obj
 0002:000006a8       ??_C@_17LFPOIHDD@?$AAA?$AAp?$AAr?$AA?$AA@ 100416a8     LIBCMT:nlsdata2.obj
 0002:000006b0       ??_C@_17CKNLEDEC@?$AAM?$AAa?$AAr?$AA?$AA@ 100416b0     LIBCMT:nlsdata2.obj
 0002:000006b8       ??_C@_17LMDJEKJN@?$AAF?$AAe?$AAb?$AA?$AA@ 100416b8     LIBCMT:nlsdata2.obj
 0002:000006c0       ??_C@_17DKNBKCHM@?$AAJ?$AAa?$AAn?$AA?$AA@ 100416c0     LIBCMT:nlsdata2.obj
 0002:000006c8       ??_C@_1BC@ENMNNPAJ@?$AAS?$AAa?$AAt?$AAu?$AAr?$AAd?$AAa?$AAy?$AA?$AA@ 100416c8     LIBCMT:nlsdata2.obj
 0002:000006dc       ??_C@_1O@PDICJHAG@?$AAF?$AAr?$AAi?$AAd?$AAa?$AAy?$AA?$AA@ 100416dc     LIBCMT:nlsdata2.obj
 0002:000006ec       ??_C@_1BC@HHMNLIHE@?$AAT?$AAh?$AAu?$AAr?$AAs?$AAd?$AAa?$AAy?$AA?$AA@ 100416ec     LIBCMT:nlsdata2.obj
 0002:00000700       ??_C@_1BE@EBOGMDOH@?$AAW?$AAe?$AAd?$AAn?$AAe?$AAs?$AAd?$AAa?$AAy?$AA?$AA@ 10041700     LIBCMT:nlsdata2.obj
 0002:00000714       ??_C@_1BA@ENFBFFEK@?$AAT?$AAu?$AAe?$AAs?$AAd?$AAa?$AAy?$AA?$AA@ 10041714     LIBCMT:nlsdata2.obj
 0002:00000724       ??_C@_1O@MMNBFLIA@?$AAM?$AAo?$AAn?$AAd?$AAa?$AAy?$AA?$AA@ 10041724     LIBCMT:nlsdata2.obj
 0002:00000734       ??_C@_1O@IHNHDHPB@?$AAS?$AAu?$AAn?$AAd?$AAa?$AAy?$AA?$AA@ 10041734     LIBCMT:nlsdata2.obj
 0002:00000744       ??_C@_17GGIBDPIH@?$AAS?$AAa?$AAt?$AA?$AA@ 10041744     LIBCMT:nlsdata2.obj
 0002:0000074c       ??_C@_17HFOLPPLP@?$AAF?$AAr?$AAi?$AA?$AA@ 1004174c     LIBCMT:nlsdata2.obj
 0002:00000754       ??_C@_17PDPHAADD@?$AAT?$AAh?$AAu?$AA?$AA@ 10041754     LIBCMT:nlsdata2.obj
 0002:0000075c       ??_C@_17CJEDCEPE@?$AAW?$AAe?$AAd?$AA?$AA@ 1004175c     LIBCMT:nlsdata2.obj
 0002:00000764       ??_C@_17BMKGEGOJ@?$AAT?$AAu?$AAe?$AA?$AA@ 10041764     LIBCMT:nlsdata2.obj
 0002:0000076c       ??_C@_17KBOMKBF@?$AAM?$AAo?$AAn?$AA?$AA@ 1004176c     LIBCMT:nlsdata2.obj
 0002:00000774       ??_C@_17MBGCMIPB@?$AAS?$AAu?$AAn?$AA?$AA@ 10041774     LIBCMT:nlsdata2.obj
 0002:0000077c       ??_C@_08JCCMCCIL@HH?3mm?3ss?$AA@ 1004177c     LIBCMT:nlsdata2.obj
 0002:00000788       ??_C@_0BE@CKGJFCPC@dddd?0?5MMMM?5dd?0?5yyyy?$AA@ 10041788     LIBCMT:nlsdata2.obj
 0002:0000079c       ??_C@_08BPBNCDIB@MM?1dd?1yy?$AA@ 1004179c     LIBCMT:nlsdata2.obj
 0002:000007a8       ??_C@_02CJNFDJBF@PM?$AA@   100417a8     LIBCMT:nlsdata2.obj
 0002:000007ac       ??_C@_02DEDBPAFC@AM?$AA@   100417ac     LIBCMT:nlsdata2.obj
 0002:000007b0       ??_C@_08EDHMEBNP@December?$AA@ 100417b0     LIBCMT:nlsdata2.obj
 0002:000007bc       ??_C@_08HCHEGEOA@November?$AA@ 100417bc     LIBCMT:nlsdata2.obj
 0002:000007c8       ??_C@_07JJNFCEND@October?$AA@ 100417c8     LIBCMT:nlsdata2.obj
 0002:000007d0       ??_C@_09BHHEALKD@September?$AA@ 100417d0     LIBCMT:nlsdata2.obj
 0002:000007dc       ??_C@_06LBBHFDDG@August?$AA@ 100417dc     LIBCMT:nlsdata2.obj
 0002:000007e4       ??_C@_04MIEPOIFP@July?$AA@ 100417e4     LIBCMT:nlsdata2.obj
 0002:000007ec       ??_C@_04CNLMGBGM@June?$AA@ 100417ec     LIBCMT:nlsdata2.obj
 0002:000007f4       ??_C@_05DMJDNLEJ@April?$AA@ 100417f4     LIBCMT:nlsdata2.obj
 0002:000007fc       ??_C@_05HPCKOFNC@March?$AA@ 100417fc     LIBCMT:nlsdata2.obj
 0002:00000804       ??_C@_08GNJGEPFN@February?$AA@ 10041804     LIBCMT:nlsdata2.obj
 0002:00000810       ??_C@_07CGJPFGJA@January?$AA@ 10041810     LIBCMT:nlsdata2.obj
 0002:00000818       ??_C@_03MKABNOCG@Dec?$AA@  10041818     LIBCMT:nlsdata2.obj
 0002:0000081c       ??_C@_03JPJOFNIA@Nov?$AA@  1004181c     LIBCMT:nlsdata2.obj
 0002:00000820       ??_C@_03BMAOKBAD@Oct?$AA@  10041820     LIBCMT:nlsdata2.obj
 0002:00000824       ??_C@_03GGCAPAJC@Sep?$AA@  10041824     LIBCMT:nlsdata2.obj
 0002:00000828       ??_C@_03IFJFEIGA@Aug?$AA@  10041828     LIBCMT:nlsdata2.obj
 0002:0000082c       ??_C@_03LBGABGKK@Jul?$AA@  1004182c     LIBCMT:nlsdata2.obj
 0002:00000830       ??_C@_03IDFGHECI@Jun?$AA@  10041830     LIBCMT:nlsdata2.obj
 0002:00000834       ??_C@_03CNMDKL@May?$AA@    10041834     LIBCMT:nlsdata2.obj
 0002:00000838       ??_C@_03LEOLGMJP@Apr?$AA@  10041838     LIBCMT:nlsdata2.obj
 0002:0000083c       ??_C@_03ODNJBKGA@Mar?$AA@  1004183c     LIBCMT:nlsdata2.obj
 0002:00000840       ??_C@_03HJBDCHOM@Feb?$AA@  10041840     LIBCMT:nlsdata2.obj
 0002:00000844       ??_C@_03JIHJHPIE@Jan?$AA@  10041844     LIBCMT:nlsdata2.obj
 0002:00000848       ??_C@_08INBOOONO@Saturday?$AA@ 10041848     LIBCMT:nlsdata2.obj
 0002:00000854       ??_C@_06JECMNKMI@Friday?$AA@ 10041854     LIBCMT:nlsdata2.obj
 0002:0000085c       ??_C@_08HACCIKIA@Thursday?$AA@ 1004185c     LIBCMT:nlsdata2.obj
 0002:00000868       ??_C@_09DLIGFAKA@Wednesday?$AA@ 10041868     LIBCMT:nlsdata2.obj
 0002:00000874       ??_C@_07BAAGCFCM@Tuesday?$AA@ 10041874     LIBCMT:nlsdata2.obj
 0002:0000087c       ??_C@_06JLEDEDGH@Monday?$AA@ 1004187c     LIBCMT:nlsdata2.obj
 0002:00000884       ??_C@_06OOPIFAJ@Sunday?$AA@ 10041884     LIBCMT:nlsdata2.obj
 0002:0000088c       ??_C@_03FEFJNEK@Sat?$AA@   1004188c     LIBCMT:nlsdata2.obj
 0002:00000890       ??_C@_03IDIOELNC@Fri?$AA@  10041890     LIBCMT:nlsdata2.obj
 0002:00000894       ??_C@_03IOFIKPDN@Thu?$AA@  10041894     LIBCMT:nlsdata2.obj
 0002:00000898       ??_C@_03MHOMLAJA@Wed?$AA@  10041898     LIBCMT:nlsdata2.obj
 0002:0000089c       ??_C@_03NAGEINEP@Tue?$AA@  1004189c     LIBCMT:nlsdata2.obj
 0002:000008a0       ??_C@_03PDAGKDH@Mon?$AA@   100418a0     LIBCMT:nlsdata2.obj
 0002:000008a4       ??_C@_03KOEHGMDN@Sun?$AA@  100418a4     LIBCMT:nlsdata2.obj
 0002:000008a8       ??_C@_1BK@DBDEIDLH@?$AAK?$AAE?$AAR?$AAN?$AAE?$AAL?$AA3?$AA2?$AA?4?$AAD?$AAL?$AAL?$AA?$AA@ 100418a8     LIBCMT:tidtable.obj
 0002:000008c4       ??_C@_07PEJMOBNF@FlsFree?$AA@ 100418c4     LIBCMT:tidtable.obj
 0002:000008cc       ??_C@_0M@JCPCPOEF@FlsSetValue?$AA@ 100418cc     LIBCMT:tidtable.obj
 0002:000008d8       ??_C@_0M@GDNOONDI@FlsGetValue?$AA@ 100418d8     LIBCMT:tidtable.obj
 0002:000008e4       ??_C@_08KNHFBNJ@FlsAlloc?$AA@ 100418e4     LIBCMT:tidtable.obj
 0002:00000970       ??_C@_01NEMOKFLO@?$DN?$AA@ 10041970     LIBCMT:setlocal.obj
 0002:00000974       ??_C@_0P@MIGLKIOC@CorExitProcess?$AA@ 10041974     LIBCMT:crt0dat.obj
 0002:00000984       ??_C@_1BI@BGOHAHKC@?$AAm?$AAs?$AAc?$AAo?$AAr?$AAe?$AAe?$AA?4?$AAd?$AAl?$AAl?$AA?$AA@ 10041984     LIBCMT:crt0dat.obj
 0002:0000099c       ??_C@_1BO@BKOMIGKJ@?$AAr?$AAu?$AAn?$AAt?$AAi?$AAm?$AAe?$AA?5?$AAe?$AAr?$AAr?$AAo?$AAr?$AA?5?$AA?$AA@ 1004199c     LIBCMT:crt0msg.obj
 0002:000009bc       ??_C@_15JNBOKNOG@?$AA?$AN?$AA?6?$AA?$AA@ 100419bc     LIBCMT:crt0msg.obj
 0002:000009c4       ??_C@_1BM@JBBEPPHI@?$AAT?$AAL?$AAO?$AAS?$AAS?$AA?5?$AAe?$AAr?$AAr?$AAo?$AAr?$AA?$AN?$AA?6?$AA?$AA@ 100419c4     LIBCMT:crt0msg.obj
 0002:000009e0       ??_C@_1BK@KMOMNAAI@?$AAS?$AAI?$AAN?$AAG?$AA?5?$AAe?$AAr?$AAr?$AAo?$AAr?$AA?$AN?$AA?6?$AA?$AA@ 100419e0     LIBCMT:crt0msg.obj
 0002:000009fc       ??_C@_1BO@BFCDCGC@?$AAD?$AAO?$AAM?$AAA?$AAI?$AAN?$AA?5?$AAe?$AAr?$AAr?$AAo?$AAr?$AA?$AN?$AA?6?$AA?$AA@ 100419fc     LIBCMT:crt0msg.obj
 0002:00000a20       ??_C@_1BOO@KGEDBGAJ@?$AAR?$AA6?$AA0?$AA3?$AA3?$AA?$AN?$AA?6?$AA?9?$AA?5?$AAA?$AAt?$AAt?$AAe?$AAm?$AAp?$AAt?$AA?5?$AAt?$AAo?$AA?5?$AAu?$AAs?$AAe?$AA?5?$AAM?$AAS?$AAI?$AAL?$AA?5?$AAc?$AAo?$AAd@ 10041a20     LIBCMT:crt0msg.obj
 0002:00000c10       ??_C@_1GG@GOPILAJP@?$AAR?$AA6?$AA0?$AA3?$AA2?$AA?$AN?$AA?6?$AA?9?$AA?5?$AAn?$AAo?$AAt?$AA?5?$AAe?$AAn?$AAo?$AAu?$AAg?$AAh?$AA?5?$AAs?$AAp?$AAa?$AAc?$AAe?$AA?5?$AAf?$AAo?$AAr?$AA?5?$AAl?$AAo@ 10041c10     LIBCMT:crt0msg.obj
 0002:00000c78       ??_C@_1MG@ENCOOIDF@?$AAR?$AA6?$AA0?$AA3?$AA1?$AA?$AN?$AA?6?$AA?9?$AA?5?$AAA?$AAt?$AAt?$AAe?$AAm?$AAp?$AAt?$AA?5?$AAt?$AAo?$AA?5?$AAi?$AAn?$AAi?$AAt?$AAi?$AAa?$AAl?$AAi?$AAz?$AAe?$AA?5?$AAt@ 10041c78     LIBCMT:crt0msg.obj
 0002:00000d40       ??_C@_1DO@BMFCDCD@?$AAR?$AA6?$AA0?$AA3?$AA0?$AA?$AN?$AA?6?$AA?9?$AA?5?$AAC?$AAR?$AAT?$AA?5?$AAn?$AAo?$AAt?$AA?5?$AAi?$AAn?$AAi?$AAt?$AAi?$AAa?$AAl?$AAi?$AAz?$AAe?$AAd?$AA?$AN?$AA?6?$AA?$AA@ 10041d40     LIBCMT:crt0msg.obj
 0002:00000d80       ??_C@_1EK@HHFLMAOL@?$AAR?$AA6?$AA0?$AA2?$AA8?$AA?$AN?$AA?6?$AA?9?$AA?5?$AAu?$AAn?$AAa?$AAb?$AAl?$AAe?$AA?5?$AAt?$AAo?$AA?5?$AAi?$AAn?$AAi?$AAt?$AAi?$AAa?$AAl?$AAi?$AAz?$AAe?$AA?5?$AAh?$AAe@ 10041d80     LIBCMT:crt0msg.obj
 0002:00000dd0       ??_C@_1GK@MFGOKLAG@?$AAR?$AA6?$AA0?$AA2?$AA7?$AA?$AN?$AA?6?$AA?9?$AA?5?$AAn?$AAo?$AAt?$AA?5?$AAe?$AAn?$AAo?$AAu?$AAg?$AAh?$AA?5?$AAs?$AAp?$AAa?$AAc?$AAe?$AA?5?$AAf?$AAo?$AAr?$AA?5?$AAl?$AAo@ 10041dd0     LIBCMT:crt0msg.obj
 0002:00000e40       ??_C@_1GK@MCAAGJMO@?$AAR?$AA6?$AA0?$AA2?$AA6?$AA?$AN?$AA?6?$AA?9?$AA?5?$AAn?$AAo?$AAt?$AA?5?$AAe?$AAn?$AAo?$AAu?$AAg?$AAh?$AA?5?$AAs?$AAp?$AAa?$AAc?$AAe?$AA?5?$AAf?$AAo?$AAr?$AA?5?$AAs?$AAt@ 10041e40     LIBCMT:crt0msg.obj
 0002:00000eb0       ??_C@_1EM@MAADIHMB@?$AAR?$AA6?$AA0?$AA2?$AA5?$AA?$AN?$AA?6?$AA?9?$AA?5?$AAp?$AAu?$AAr?$AAe?$AA?5?$AAv?$AAi?$AAr?$AAt?$AAu?$AAa?$AAl?$AA?5?$AAf?$AAu?$AAn?$AAc?$AAt?$AAi?$AAo?$AAn?$AA?5?$AAc@ 10041eb0     LIBCMT:crt0msg.obj
 0002:00000f00       ??_C@_1GK@FHCKBEFA@?$AAR?$AA6?$AA0?$AA2?$AA4?$AA?$AN?$AA?6?$AA?9?$AA?5?$AAn?$AAo?$AAt?$AA?5?$AAe?$AAn?$AAo?$AAu?$AAg?$AAh?$AA?5?$AAs?$AAp?$AAa?$AAc?$AAe?$AA?5?$AAf?$AAo?$AAr?$AA?5?$AA_?$AAo@ 10041f00     LIBCMT:crt0msg.obj
 0002:00000f70       ??_C@_1FC@ECHBIFBC@?$AAR?$AA6?$AA0?$AA1?$AA9?$AA?$AN?$AA?6?$AA?9?$AA?5?$AAu?$AAn?$AAa?$AAb?$AAl?$AAe?$AA?5?$AAt?$AAo?$AA?5?$AAo?$AAp?$AAe?$AAn?$AA?5?$AAc?$AAo?$AAn?$AAs?$AAo?$AAl?$AAe?$AA?5@ 10041f70     LIBCMT:crt0msg.obj
 0002:00000fc8       ??_C@_1EC@JIBHAOPH@?$AAR?$AA6?$AA0?$AA1?$AA8?$AA?$AN?$AA?6?$AA?9?$AA?5?$AAu?$AAn?$AAe?$AAx?$AAp?$AAe?$AAc?$AAt?$AAe?$AAd?$AA?5?$AAh?$AAe?$AAa?$AAp?$AA?5?$AAe?$AAr?$AAr?$AAo?$AAr?$AA?$AN?$AA?6@ 10041fc8     LIBCMT:crt0msg.obj
 0002:00001010       ??_C@_1FK@BEOGODMC@?$AAR?$AA6?$AA0?$AA1?$AA7?$AA?$AN?$AA?6?$AA?9?$AA?5?$AAu?$AAn?$AAe?$AAx?$AAp?$AAe?$AAc?$AAt?$AAe?$AAd?$AA?5?$AAm?$AAu?$AAl?$AAt?$AAi?$AAt?$AAh?$AAr?$AAe?$AAa?$AAd?$AA?5@ 10042010     LIBCMT:crt0msg.obj
 0002:00001070       ??_C@_1FI@LOGNIKDM@?$AAR?$AA6?$AA0?$AA1?$AA6?$AA?$AN?$AA?6?$AA?9?$AA?5?$AAn?$AAo?$AAt?$AA?5?$AAe?$AAn?$AAo?$AAu?$AAg?$AAh?$AA?5?$AAs?$AAp?$AAa?$AAc?$AAe?$AA?5?$AAf?$AAo?$AAr?$AA?5?$AAt?$AAh@ 10042070     LIBCMT:crt0msg.obj
 0002:000010c8       ??_C@_1EG@BEHAGFJD@?$AAR?$AA6?$AA0?$AA1?$AA0?$AA?$AN?$AA?6?$AA?9?$AA?5?$AAa?$AAb?$AAo?$AAr?$AAt?$AA?$CI?$AA?$CJ?$AA?5?$AAh?$AAa?$AAs?$AA?5?$AAb?$AAe?$AAe?$AAn?$AA?5?$AAc?$AAa?$AAl?$AAl?$AAe?$AAd@ 100420c8     LIBCMT:crt0msg.obj
 0002:00001110       ??_C@_1FI@HONFMGBI@?$AAR?$AA6?$AA0?$AA0?$AA9?$AA?$AN?$AA?6?$AA?9?$AA?5?$AAn?$AAo?$AAt?$AA?5?$AAe?$AAn?$AAo?$AAu?$AAg?$AAh?$AA?5?$AAs?$AAp?$AAa?$AAc?$AAe?$AA?5?$AAf?$AAo?$AAr?$AA?5?$AAe?$AAn@ 10042110     LIBCMT:crt0msg.obj
 0002:00001168       ??_C@_1FE@LLNEDJMD@?$AAR?$AA6?$AA0?$AA0?$AA8?$AA?$AN?$AA?6?$AA?9?$AA?5?$AAn?$AAo?$AAt?$AA?5?$AAe?$AAn?$AAo?$AAu?$AAg?$AAh?$AA?5?$AAs?$AAp?$AAa?$AAc?$AAe?$AA?5?$AAf?$AAo?$AAr?$AA?5?$AAa?$AAr@ 10042168     LIBCMT:crt0msg.obj
 0002:000011c0       ??_C@_1FK@PGACCAFB@?$AAR?$AA6?$AA0?$AA0?$AA2?$AA?$AN?$AA?6?$AA?9?$AA?5?$AAf?$AAl?$AAo?$AAa?$AAt?$AAi?$AAn?$AAg?$AA?5?$AAp?$AAo?$AAi?$AAn?$AAt?$AA?5?$AAs?$AAu?$AAp?$AAp?$AAo?$AAr?$AAt?$AA?5@ 100421c0     LIBCMT:crt0msg.obj
 0002:000012d0       ??_C@_1EK@MBDPDCGA@?$AAM?$AAi?$AAc?$AAr?$AAo?$AAs?$AAo?$AAf?$AAt?$AA?5?$AAV?$AAi?$AAs?$AAu?$AAa?$AAl?$AA?5?$AAC?$AA?$CL?$AA?$CL?$AA?5?$AAR?$AAu?$AAn?$AAt?$AAi?$AAm?$AAe?$AA?5?$AAL?$AAi?$AAb@ 100422d0     LIBCMT:crt0msg.obj
 0002:0000131c       ??_C@_15IABLJNFO@?$AA?6?$AA?6?$AA?$AA@ 1004231c     LIBCMT:crt0msg.obj
 0002:00001324       ??_C@_17LGKOMLJ@?$AA?4?$AA?4?$AA?4?$AA?$AA@ 10042324     LIBCMT:crt0msg.obj
 0002:0000132c       ??_C@_1CO@EAEJAADC@?$AA?$DM?$AAp?$AAr?$AAo?$AAg?$AAr?$AAa?$AAm?$AA?5?$AAn?$AAa?$AAm?$AAe?$AA?5?$AAu?$AAn?$AAk?$AAn?$AAo?$AAw?$AAn?$AA?$DO?$AA?$AA@ 1004232c     LIBCMT:crt0msg.obj
 0002:0000135c       ??_C@_1DE@JNGNBFGO@?$AAR?$AAu?$AAn?$AAt?$AAi?$AAm?$AAe?$AA?5?$AAE?$AAr?$AAr?$AAo?$AAr?$AA?$CB?$AA?6?$AA?6?$AAP?$AAr?$AAo?$AAg?$AAr?$AAa?$AAm?$AA?3?$AA?5?$AA?$AA@ 1004235c     LIBCMT:crt0msg.obj
 0002:00001390       ??_C@_1O@CEDCILHN@?$AA?$CI?$AAn?$AAu?$AAl?$AAl?$AA?$CJ?$AA?$AA@ 10042390     LIBCMT:output.obj
 0002:000013a0       ??_C@_06OJHGLDPL@?$CInull?$CJ?$AA@ 100423a0     LIBCMT:output.obj
 0002:000013a8       ___lookuptable             100423a8     LIBCMT:output.obj
 0002:00001408       __XcptActTab               10042408     LIBCMT:winxfltr.obj
 0002:00001498       __First_FPE_Indx           10042498     LIBCMT:winxfltr.obj
 0002:0000149c       __Num_FPE                  1004249c     LIBCMT:winxfltr.obj
 0002:000014a0       __XcptActTabSize           100424a0     LIBCMT:winxfltr.obj
 0002:000014a4       __XcptActTabCount          100424a4     LIBCMT:winxfltr.obj
 0002:000014e0       ??_C@_02CLFPBFFP@TZ?$AA@   100424e0     LIBCMT:tzset.obj
 0002:000014e4       ___dnames                  100424e4     LIBCMT:timeset.obj
 0002:000014fc       ___mnames                  100424fc     LIBCMT:timeset.obj
 0002:00001528       ___newctype                10042528     LIBCMT:ctype.obj
 0002:00001828       __wctype                   10042828     LIBCMT:ctype.obj
 0002:00001a30       ___newclmap                10042a30     LIBCMT:ctype.obj
 0002:00001bb0       ___newcumap                10042bb0     LIBCMT:ctype.obj
 0002:00001d30       ??_C@_0BK@CFCOFLF@?5Complete?5Object?5Locator?8?$AA@ 10042d30     LIBCMT:undname.obj
 0002:00001d4c       ??_C@_0BN@MECKDCOJ@?5Class?5Hierarchy?5Descriptor?8?$AA@ 10042d4c     LIBCMT:undname.obj
 0002:00001d6c       ??_C@_0BD@LGICGFMM@?5Base?5Class?5Array?8?$AA@ 10042d6c     LIBCMT:undname.obj
 0002:00001d80       ??_C@_0BM@LDKODKLH@?5Base?5Class?5Descriptor?5at?5?$CI?$AA@ 10042d80     LIBCMT:undname.obj
 0002:00001d9c       ??_C@_0BC@DAFEJGAK@?5Type?5Descriptor?8?$AA@ 10042d9c     LIBCMT:undname.obj
 0002:00001db0       ??_C@_0BM@PMGGMLDN@?$GAlocal?5static?5thread?5guard?8?$AA@ 10042db0     LIBCMT:undname.obj
 0002:00001dcc       ??_C@_0CL@FGIJHLCE@?$GAmanaged?5vector?5copy?5constructor@ 10042dcc     LIBCMT:undname.obj
 0002:00001df8       ??_C@_0CJ@GJELGAMM@?$GAvector?5vbase?5copy?5constructor?5i@ 10042df8     LIBCMT:undname.obj
 0002:00001e24       ??_C@_0CD@CGAJBKEJ@?$GAvector?5copy?5constructor?5iterato@ 10042e24     LIBCMT:undname.obj
 0002:00001e48       ??_C@_0CB@PDBIFEP@?$GAdynamic?5atexit?5destructor?5for?5?8@ 10042e48     LIBCMT:undname.obj
 0002:00001e6c       ??_C@_0BL@CLIPGLGB@?$GAdynamic?5initializer?5for?5?8?$AA@ 10042e6c     LIBCMT:undname.obj
 0002:00001e88       ??_C@_0CM@FCBBDIGB@?$GAeh?5vector?5vbase?5copy?5constructo@ 10042e88     LIBCMT:undname.obj
 0002:00001eb4       ??_C@_0CG@HLDDJMAG@?$GAeh?5vector?5copy?5constructor?5iter@ 10042eb4     LIBCMT:undname.obj
 0002:00001edc       ??_C@_0CF@IMGKMJNO@?$GAmanaged?5vector?5destructor?5itera@ 10042edc     LIBCMT:undname.obj
 0002:00001f04       ??_C@_0CG@CFDHKGGD@?$GAmanaged?5vector?5constructor?5iter@ 10042f04     LIBCMT:undname.obj
 0002:00001f2c       ??_C@_0BN@CKNJLHMB@?$GAplacement?5delete?$FL?$FN?5closure?8?$AA@ 10042f2c     LIBCMT:undname.obj
 0002:00001f4c       ??_C@_0BL@CNOONJFP@?$GAplacement?5delete?5closure?8?$AA@ 10042f4c     LIBCMT:undname.obj
 0002:00001f68       ??_C@_0P@HJKNJFNN@?$GAomni?5callsig?8?$AA@ 10042f68     LIBCMT:undname.obj
 0002:00001f78       ??_C@_09LBNFPBCA@?5delete?$FL?$FN?$AA@ 10042f78     LIBCMT:undname.obj
 0002:00001f84       ??_C@_06FHBGPFGH@?5new?$FL?$FN?$AA@ 10042f84     LIBCMT:undname.obj
 0002:00001f8c       ??_C@_0CE@IIHCMGGL@?$GAlocal?5vftable?5constructor?5closu@ 10042f8c     LIBCMT:undname.obj
 0002:00001fb0       ??_C@_0BA@KKLDJDLB@?$GAlocal?5vftable?8?$AA@ 10042fb0     LIBCMT:undname.obj
 0002:00001fc0       ??_C@_05KHLCHHI@?$GARTTI?$AA@ 10042fc0     LIBCMT:undname.obj
 0002:00001fc8       ??_C@_03KLGMFNMG@?$GAEH?$AA@ 10042fc8     LIBCMT:undname.obj
 0002:00001fcc       ??_C@_0BA@KBCDOMBN@?$GAudt?5returning?8?$AA@ 10042fcc     LIBCMT:undname.obj
 0002:00001fdc       ??_C@_0BL@LLKPOHJI@?$GAcopy?5constructor?5closure?8?$AA@ 10042fdc     LIBCMT:undname.obj
 0002:00001ff8       ??_C@_0CH@OOJPLCPH@?$GAeh?5vector?5vbase?5constructor?5ite@ 10042ff8     LIBCMT:undname.obj
 0002:00002020       ??_C@_0CA@GCEOPDGL@?$GAeh?5vector?5destructor?5iterator?8?$AA@ 10043020     LIBCMT:undname.obj
 0002:00002040       ??_C@_0CB@JONCMFFK@?$GAeh?5vector?5constructor?5iterator?8@ 10043040     LIBCMT:undname.obj
 0002:00002064       ??_C@_0BL@NILFHHPC@?$GAvirtual?5displacement?5map?8?$AA@ 10043064     LIBCMT:undname.obj
 0002:00002080       ??_C@_0CE@IKBNEHA@?$GAvector?5vbase?5constructor?5iterat@ 10043080     LIBCMT:undname.obj
 0002:000020a4       ??_C@_0BN@LFPFMEDL@?$GAvector?5destructor?5iterator?8?$AA@ 100430a4     LIBCMT:undname.obj
 0002:000020c4       ??_C@_0BO@PFGOCPJJ@?$GAvector?5constructor?5iterator?8?$AA@ 100430c4     LIBCMT:undname.obj
 0002:000020e4       ??_C@_0BN@IMDCHIKM@?$GAscalar?5deleting?5destructor?8?$AA@ 100430e4     LIBCMT:undname.obj
 0002:00002104       ??_C@_0BO@OBMKPJIG@?$GAdefault?5constructor?5closure?8?$AA@ 10043104     LIBCMT:undname.obj
 0002:00002124       ??_C@_0BN@DEGPLNFK@?$GAvector?5deleting?5destructor?8?$AA@ 10043124     LIBCMT:undname.obj
 0002:00002144       ??_C@_0BD@JDLKDPAB@?$GAvbase?5destructor?8?$AA@ 10043144     LIBCMT:undname.obj
 0002:00002158       ??_C@_08OBABFOLI@?$GAstring?8?$AA@ 10043158     LIBCMT:undname.obj
 0002:00002164       ??_C@_0BF@KDPPACIK@?$GAlocal?5static?5guard?8?$AA@ 10043164     LIBCMT:undname.obj
 0002:0000217c       ??_C@_08LLFFHHDJ@?$GAtypeof?8?$AA@ 1004317c     LIBCMT:undname.obj
 0002:00002188       ??_C@_07FEEIOKP@?$GAvcall?8?$AA@ 10043188     LIBCMT:undname.obj
 0002:00002190       ??_C@_09BLBHBJP@?$GAvbtable?8?$AA@ 10043190     LIBCMT:undname.obj
 0002:0000219c       ??_C@_09IFPLHPGF@?$GAvftable?8?$AA@ 1004319c     LIBCMT:undname.obj
 0002:000021a8       ??_C@_02MHEGNOJ@?$FO?$DN?$AA@ 100431a8     LIBCMT:undname.obj
 0002:000021ac       ??_C@_02DHLNPPGH@?$HM?$DN?$AA@ 100431ac     LIBCMT:undname.obj
 0002:000021b0       ??_C@_02FGJGFEAB@?$CG?$DN?$AA@ 100431b0     LIBCMT:undname.obj
 0002:000021b4       ??_C@_03CDNPDDLA@?$DM?$DM?$DN?$AA@ 100431b4     LIBCMT:undname.obj
 0002:000021b8       ??_C@_03IKFCCPFF@?$DO?$DO?$DN?$AA@ 100431b8     LIBCMT:undname.obj
 0002:000021bc       ??_C@_02FENAOKFI@?$CF?$DN?$AA@ 100431bc     LIBCMT:undname.obj
 0002:000021c0       ??_C@_02FJEHGPIO@?1?$DN?$AA@ 100431c0     LIBCMT:undname.obj
 0002:000021c4       ??_C@_02FKMDLLOA@?9?$DN?$AA@ 100431c4     LIBCMT:undname.obj
 0002:000021c8       ??_C@_02FOEOMHFC@?$CL?$DN?$AA@ 100431c8     LIBCMT:undname.obj
 0002:000021cc       ??_C@_02FPIMKNGF@?$CK?$DN?$AA@ 100431cc     LIBCMT:undname.obj
 0002:000021d0       ??_C@_02NONPIBCD@?$HM?$HM?$AA@ 100431d0     LIBCMT:undname.obj
 0002:000021d4       ??_C@_02PPKAJPJL@?$CG?$CG?$AA@ 100431d4     LIBCMT:undname.obj
 0002:000021d8       ??_C@_01DNKMNLPK@?$HM?$AA@ 100431d8     LIBCMT:undname.obj
 0002:000021dc       ??_C@_01JKBOJNNK@?$FO?$AA@ 100431dc     LIBCMT:undname.obj
 0002:000021e0       ??_C@_01PJKLJHI@?$HO?$AA@  100431e0     LIBCMT:undname.obj
 0002:000021e4       ??_C@_02HCKGKOFO@?$CI?$CJ?$AA@ 100431e4     LIBCMT:undname.obj
 0002:000021e8       ??_C@_01IHBHIGKO@?0?$AA@   100431e8     LIBCMT:undname.obj
 0002:000021ec       ??_C@_02EEKDKGMJ@?$DO?$DN?$AA@ 100431ec     LIBCMT:undname.obj
 0002:000021f0       ??_C@_02EHCHHCKH@?$DM?$DN?$AA@ 100431f0     LIBCMT:undname.obj
 0002:000021f4       ??_C@_01FGNFDNOH@?$CF?$AA@ 100431f4     LIBCMT:undname.obj
 0002:000021f8       ??_C@_03MNHNFDLC@?9?$DO?$CK?$AA@ 100431f8     LIBCMT:undname.obj
 0002:000021fc       ??_C@_01MIFGBAGJ@?$CL?$AA@ 100431fc     LIBCMT:undname.obj
 0002:00002200       ??_C@_02ECNGHCIF@?$CL?$CL?$AA@ 10043200     LIBCMT:undname.obj
 0002:00002204       ??_C@_02HBOOOICD@?9?$DO?$AA@ 10043204     LIBCMT:undname.obj
 0002:00002208       ??_C@_08LHJFAFGD@operator?$AA@ 10043208     LIBCMT:undname.obj
 0002:00002214       ??_C@_02GPECMEKF@?$FL?$FN?$AA@ 10043214     LIBCMT:undname.obj
 0002:00002218       ??_C@_02FDNJECIE@?$CB?$DN?$AA@ 10043218     LIBCMT:undname.obj
 0002:0000221c       ??_C@_02EGOFBIJA@?$DN?$DN?$AA@ 1004321c     LIBCMT:undname.obj
 0002:00002220       ??_C@_01DCLJPIOD@?$CB?$AA@ 10043220     LIBCMT:undname.obj
 0002:00002224       ??_C@_02FODMEDOG@?$DM?$DM?$AA@ 10043224     LIBCMT:undname.obj
 0002:00002228       ??_C@_02GPIOPFAK@?$DO?$DO?$AA@ 10043228     LIBCMT:undname.obj
 0002:0000222c       ??_C@_07FPCDHGMM@?5delete?$AA@ 1004322c     LIBCMT:undname.obj
 0002:00002234       ??_C@_04NIHEBCM@?5new?$AA@ 10043234     LIBCMT:undname.obj
 0002:0000223c       ??_C@_0M@GFIIJFMG@__unaligned?$AA@ 1004323c     LIBCMT:undname.obj
 0002:00002248       ??_C@_0L@PILCLIHE@__restrict?$AA@ 10043248     LIBCMT:undname.obj
 0002:00002254       ??_C@_07JOMMBBKO@__ptr64?$AA@ 10043254     LIBCMT:undname.obj
 0002:0000225c       ??_C@_06GHPCKEAG@__eabi?$AA@ 1004325c     LIBCMT:undname.obj
 0002:00002264       ??_C@_09HIJEGCPM@__clrcall?$AA@ 10043264     LIBCMT:undname.obj
 0002:00002270       ??_C@_0L@JMKHOMEK@__fastcall?$AA@ 10043270     LIBCMT:undname.obj
 0002:0000227c       ??_C@_0L@NPHFGOKO@__thiscall?$AA@ 1004327c     LIBCMT:undname.obj
 0002:00002288       ??_C@_09IFJBGAPI@__stdcall?$AA@ 10043288     LIBCMT:undname.obj
 0002:00002294       ??_C@_08GHMPAG@__pascal?$AA@ 10043294     LIBCMT:undname.obj
 0002:000022a0       ??_C@_07KOLFKCDI@__cdecl?$AA@ 100432a0     LIBCMT:undname.obj
 0002:000022a8       ??_C@_08EHJDFFNH@__based?$CI?$AA@ 100432a8     LIBCMT:undname.obj
 0002:0000243c       ??_C@_0BI@DFKBFLJE@GetProcessWindowStation?$AA@ 1004343c     LIBCMT:crtmboxw.obj
 0002:00002454       ??_C@_0BK@DEKFELLI@GetUserObjectInformationW?$AA@ 10043454     LIBCMT:crtmboxw.obj
 0002:00002470       ??_C@_0BD@HHGDFDBJ@GetLastActivePopup?$AA@ 10043470     LIBCMT:crtmboxw.obj
 0002:00002484       ??_C@_0BA@HNOPNCHB@GetActiveWindow?$AA@ 10043484     LIBCMT:crtmboxw.obj
 0002:00002494       ??_C@_0M@DLDCCGNP@MessageBoxW?$AA@ 10043494     LIBCMT:crtmboxw.obj
 0002:000024a0       ??_C@_1BG@GOEBHBDC@?$AAU?$AAS?$AAE?$AAR?$AA3?$AA2?$AA?4?$AAD?$AAL?$AAL?$AA?$AA@ 100434a0     LIBCMT:crtmboxw.obj
 0002:000024b8       ___lookuptable_s           100434b8     LIBCMT:outputs.obj
 0002:0000251c       __pDestructExceptionObject 1004351c     LIBCMT:frame.obj
 0002:00002524       ??_7bad_exception@std@@6B@ 10043524     LIBCMT:frame.obj
 0002:0000252c       ??_C@_0O@DPKOEFFH@bad?5exception?$AA@ 1004352c     LIBCMT:frame.obj
 0002:0000253c       ??_C@_1BA@BALFACEM@?$AAC?$AAO?$AAN?$AAO?$AAU?$AAT?$AA$?$AA?$AA@ 1004353c     LIBCMT:initcon.obj
 0002:0000254c       _FOLDERID_LocalAppDataLow  1004354c     uuid:shguids.obj
 0002:0000255c       ??_C@_0BJ@LAKDHAPN@Missing?5PLTE?5before?5IDAT?$AA@ 1004355c     libpng:pngread.obj
 0002:00002578       ??_C@_0BJ@FFGICIDJ@Missing?5IHDR?5before?5IDAT?$AA@ 10043578     libpng:pngread.obj
 0002:00002594       ??_C@_0BF@DJLIMHLL@Too?5many?5IDATs?5found?$AA@ 10043594     libpng:pngread.obj
 0002:000025ac       ??_C@_0DK@FFGAMEAC@png_read_update_info?1png_start_r@ 100435ac     libpng:pngread.obj
 0002:000025e8       ??_C@_0CP@OINAJLHB@internal?5sequential?5row?5size?5cal@ 100435e8     libpng:pngread.obj
 0002:00002618       ??_C@_0BK@CONOMAKG@bad?5adaptive?5filter?5value?$AA@ 10043618     libpng:pngread.obj
 0002:00002634       ??_C@_0BI@DKBHKBPF@sequential?5row?5overflow?$AA@ 10043634     libpng:pngread.obj
 0002:0000264c       ??_C@_0CB@KCPNIGFM@Invalid?5attempt?5to?5read?5row?5data@ 1004364c     libpng:pngread.obj
 0002:00002670       ??_C@_0CJ@NMAOGEBP@Read?5palette?5index?5exceeding?5num@ 10043670     libpng:pngread.obj
 0002:00002800       ??_C@_0BM@FGGHCFBF@unexpected?5zlib?5return?5code?$AA@ 10043800     libpng:png.obj
 0002:0000281c       ??_C@_0BH@MPOINNNJ@unexpected?5zlib?5return?$AA@ 1004381c     libpng:png.obj
 0002:00002834       ??_C@_0BJ@EHGGFMEH@unsupported?5zlib?5version?$AA@ 10043834     libpng:png.obj
 0002:00002850       ??_C@_09IDFJECNO@truncated?$AA@ 10043850     libpng:png.obj
 0002:0000285c       ??_C@_0BE@OGGJBMCE@insufficient?5memory?$AA@ 1004385c     libpng:png.obj
 0002:00002870       ??_C@_0BC@NNBNLNOK@damaged?5LZ?5stream?$AA@ 10043870     libpng:png.obj
 0002:00002884       ??_C@_0BH@MLOBAKCG@bad?5parameters?5to?5zlib?$AA@ 10043884     libpng:png.obj
 0002:0000289c       ??_C@_0O@HJOFHIEK@zlib?5IO?5error?$AA@ 1004389c     libpng:png.obj
 0002:000028ac       ??_C@_0BG@MPHEFODE@missing?5LZ?5dictionary?$AA@ 100438ac     libpng:png.obj
 0002:000028c4       ??_C@_0BM@DCGHBGGB@unexpected?5end?5of?5LZ?5stream?$AA@ 100438c4     libpng:png.obj
 0002:000028e0       ??_C@_0BM@HJJDGHNN@inconsistent?5chromaticities?$AA@ 100438e0     libpng:png.obj
 0002:000028fc       ??_C@_03FPCGPDIA@?8?3?5?$AA@ 100438fc     libpng:png.obj
 0002:00002900       ??_C@_09EIINAFOA@profile?5?8?$AA@ 10043900     libpng:png.obj
 0002:0000290c       ??_C@_0P@BHAFPBHF@invalid?5length?$AA@ 1004390c     libpng:png.obj
 0002:0000291c       ??_C@_09PNOMNDOP@too?5short?$AA@ 1004391c     libpng:png.obj
 0002:00002928       ??_C@_0BE@CNFFOELI@tag?5count?5too?5large?$AA@ 10043928     libpng:png.obj
 0002:0000293c       ??_C@_0CG@INEPEFFI@invalid?5embedded?5Abstract?5ICC?5pr@ 1004393c     libpng:png.obj
 0002:00002964       ??_C@_0CI@NFBGKLIH@unexpected?5DeviceLink?5ICC?5profil@ 10043964     libpng:png.obj
 0002:0000298c       ??_C@_0BM@BPHIMDPD@unexpected?5ICC?5PCS?5encoding?$AA@ 1004398c     libpng:png.obj
 0002:000029a8       ??_C@_0CI@NDFPJEMP@unexpected?5NamedColor?5ICC?5profil@ 100439a8     libpng:png.obj
 0002:000029d0       ??_C@_0BP@DOFHBNBO@unrecognized?5ICC?5profile?5class?$AA@ 100439d0     libpng:png.obj
 0002:000029f0       ??_C@_0CK@CEMFCLCA@Gray?5color?5space?5not?5permitted?5o@ 100439f0     libpng:png.obj
 0002:00002a1c       ??_C@_0CP@GHPMDODC@RGB?5color?5space?5not?5permitted?5on@ 10043a1c     libpng:png.obj
 0002:00002a4c       ??_C@_0CA@HOHKIILJ@invalid?5ICC?5profile?5color?5space?$AA@ 10043a4c     libpng:png.obj
 0002:00002a6c       ??_C@_0BK@MEJNAFGD@PCS?5illuminant?5is?5not?5D50?$AA@ 10043a6c     libpng:png.obj
 0002:00002a88       ??_C@_0BC@HAKEGDIP@invalid?5signature?$AA@ 10043a88     libpng:png.obj
 0002:00002a9c       ??_C@_0BN@BMHOENEG@intent?5outside?5defined?5range?$AA@ 10043a9c     libpng:png.obj
 0002:00002abc       ??_C@_0BJ@NOHNGFGM@invalid?5rendering?5intent?$AA@ 10043abc     libpng:png.obj
 0002:00002ad8       ??_C@_0BO@EOFNLIJI@length?5does?5not?5match?5profile?$AA@ 10043ad8     libpng:png.obj
 0002:00002af8       ??_C@_0CA@NKEPDGAJ@ICC?5profile?5tag?5outside?5profile?$AA@ 10043af8     libpng:png.obj
 0002:00002b18       ??_C@_0CK@FLMCLBG@ICC?5profile?5tag?5start?5not?5a?5mult@ 10043b18     libpng:png.obj
 0002:00002b44       ??_C@_0DI@OPGPJMBN@Not?5recognizing?5known?5sRGB?5profi@ 10043b44     libpng:png.obj
 0002:00002b7c       ??_C@_0CL@KMCEELKM@out?9of?9date?5sRGB?5profile?5with?5no@ 10043b7c     libpng:png.obj
 0002:00002ba8       ??_C@_0BN@NGLMALGM@known?5incorrect?5sRGB?5profile?$AA@ 10043ba8     libpng:png.obj
 0002:00002bc8       ??_C@_0BC@MEPNMCAI@Invalid?5IHDR?5data?$AA@ 10043bc8     libpng:png.obj
 0002:00002be0       __real@c1e0000000000000    10043be0     libpng:png.obj
 0002:00002be8       __real@41dfffffffc00000    10043be8     libpng:png.obj
 0002:00002bf0       __real@40f86a0000000000    10043bf0     libpng:png.obj
 0002:00002bf8       __real@4202a05f20000000    10043bf8     libpng:png.obj
 0002:00002c00       __real@3ee4f8b588e368f1    10043c00     libpng:png.obj
 0002:00002c08       __real@430c6bf526340000    10043c08     libpng:png.obj
 0002:00002c10       __real@406fe00000000000    10043c10     libpng:png.obj
 0002:00002c18       __real@41f0000000000000    10043c18     libpng:png.obj
 0002:00002c20       __real@40efffe000000000    10043c20     libpng:png.obj
 0002:00002c28       ??_C@_0CA@CLCNGBEC@gamma?5value?5does?5not?5match?5sRGB?$AA@ 10043c28     libpng:png.obj
 0002:00002c48       ??_C@_0CL@GOLDHPHF@gamma?5value?5does?5not?5match?5libpn@ 10043c48     libpng:png.obj
 0002:00002c74       ??_C@_0BJ@PAAJEMGL@gamma?5value?5out?5of?5range?$AA@ 10043c74     libpng:png.obj
 0002:00002c90       ??_C@_09KHIKJOBP@duplicate?$AA@ 10043c90     libpng:png.obj
 0002:00002c9c       ??_C@_0BH@LBOFIDPO@invalid?5chromaticities?$AA@ 10043c9c     libpng:png.obj
 0002:00002cb4       ??_C@_0CH@BBPMHCN@internal?5error?5checking?5chromati@ 10043cb4     libpng:png.obj
 0002:00002cdc       ??_C@_04FBDBODBG@sRGB?$AA@ 10043cdc     libpng:png.obj
 0002:00002ce4       ??_C@_0BO@IGFOGDFM@invalid?5sRGB?5rendering?5intent?$AA@ 10043ce4     libpng:png.obj
 0002:00002d04       ??_C@_0BP@NCEJAGKE@cHRM?5chunk?5does?5not?5match?5sRGB?$AA@ 10043d04     libpng:png.obj
 0002:00002d24       ??_C@_0CD@CDNBECKE@duplicate?5sRGB?5information?5ignor@ 10043d24     libpng:png.obj
 0002:00002d48       ??_C@_0BP@PJLHGALD@inconsistent?5rendering?5intents?$AA@ 10043d48     libpng:png.obj
 0002:00002d68       ??_C@_0CM@GNKBMBFP@invalid?5before?5the?5PNG?5header?5ha@ 10043d68     libpng:pngrtran.obj
 0002:00002d94       ??_C@_0DL@CAJMFGIG@invalid?5after?5png_start_read_ima@ 10043d94     libpng:pngrtran.obj
 0002:00002dd0       ??_C@_0M@FBBKEIKG@gamma?5value?$AA@ 10043dd0     libpng:pngrtran.obj
 0002:00002de0       __real@c1dfffffffc00000    10043de0     libpng:pngrtran.obj
 0002:00002de8       __real@4060000000000000    10043de8     libpng:pngrtran.obj
 0002:00002df0       ??_C@_0CG@NENGEGMG@invalid?5screen?5gamma?5in?5png_set_@ 10043df0     libpng:pngrtran.obj
 0002:00002e18       ??_C@_0CE@IFPDIMOB@invalid?5file?5gamma?5in?5png_set_ga@ 10043e18     libpng:pngrtran.obj
 0002:00002e3c       ??_C@_0BO@ENKNLJK@invalid?5background?5gamma?5type?$AA@ 10043e3c     libpng:pngrtran.obj
 0002:00002e5c       ??_C@_0CB@BPJJBEIH@Palette?5is?5NULL?5in?5indexed?5image@ 10043e5c     libpng:pngrtran.obj
 0002:00002e80       ??_C@_0BC@ICIDCBAI@Uninitialized?5row?$AA@ 10043e80     libpng:pngrtran.obj
 0002:00002e94       ??_C@_0BA@DBGPKIA@NULL?5row?5buffer?$AA@ 10043e94     libpng:pngrtran.obj
 0002:00002ea4       ??_C@_0DI@HJFBOCDP@png_set_filler?5is?5invalid?5for?5lo@ 10043ea4     libpng:pngtrans.obj
 0002:00002edc       ??_C@_0CJ@ICFACDLO@png_set_filler?3?5inappropriate?5co@ 10043edc     libpng:pngtrans.obj
 0002:00002f2c       ??_C@_0BJ@BIPJEANG@fixed?5point?5overflow?5in?5?$AA@ 10043f2c     libpng:pngerror.obj
 0002:00002f48       ??_C@_0BP@OGHIMAJC@Libpng?5jmp_buf?5still?5allocated?$AA@ 10043f48     libpng:pngerror.obj
 0002:00002f68       ??_C@_0BL@GPADEDKN@Call?5to?5NULL?5read?5function?$AA@ 10043f68     libpng:pngrio.obj
 0002:00002fe0       ??_C@_0BL@BGONKFBB@Invalid?5pCAL?5equation?5type?$AA@ 10043fe0     libpng:pngset.obj
 0002:00002ffc       ??_C@_0BN@FHGDAAAD@Invalid?5pCAL?5parameter?5count?$AA@ 10043ffc     libpng:pngset.obj
 0002:0000301c       ??_C@_0CC@LPAJHANK@Invalid?5format?5for?5pCAL?5paramete@ 1004401c     libpng:pngset.obj
 0002:00003040       ??_C@_0BD@ENHOBHJG@Invalid?5sCAL?5width?$AA@ 10044040     libpng:pngset.obj
 0002:00003054       ??_C@_0BE@OBKOEAI@Invalid?5sCAL?5height?$AA@ 10044054     libpng:pngset.obj
 0002:00003068       ??_C@_0BC@GANANPIA@Invalid?5sCAL?5unit?$AA@ 10044068     libpng:pngset.obj
 0002:0000307c       ??_C@_0BH@IKBNLCFC@Invalid?5palette?5length?$AA@ 1004407c     libpng:pngset.obj
 0002:00003094       ??_C@_0BA@NCKCMMNF@Invalid?5palette?$AA@ 10044094     libpng:pngset.obj
 0002:000030a4       ??_C@_0BK@FPMAJGNB@text?5chunk?3?5out?5of?5memory?$AA@ 100440a4     libpng:pngset.obj
 0002:000030c0       ??_C@_0CG@KOBFBGAM@text?5compression?5mode?5is?5out?5of?5@ 100440c0     libpng:pngset.obj
 0002:000030e8       ??_C@_0BF@EPLDENLO@too?5many?5text?5chunks?$AA@ 100440e8     libpng:pngset.obj
 0002:00003100       ??_C@_0BD@FCEBHNK@sPLT?5out?5of?5memory?$AA@ 10044100     libpng:pngset.obj
 0002:00003114       ??_C@_0BL@FDLCPBMN@png_set_sPLT?3?5invalid?5sPLT?$AA@ 10044114     libpng:pngset.obj
 0002:00003130       ??_C@_0BF@IBPPODIO@too?5many?5sPLT?5chunks?$AA@ 10044130     libpng:pngset.obj
 0002:0000327c       ??_C@_0CC@CLHKAOCN@PNG?5unsigned?5integer?5out?5of?5rang@ 1004427c     libpng:pngrutil.obj
 0002:000032a0       ??_C@_0CH@NMANOLCN@PNG?5file?5corrupted?5by?5ASCII?5conv@ 100442a0     libpng:pngrutil.obj
 0002:000032c8       ??_C@_0P@KIMIGLKH@Not?5a?5PNG?5file?$AA@ 100442c8     libpng:pngrutil.obj
 0002:000032d8       ??_C@_0CC@DELNGCGA@insufficient?5memory?5to?5read?5chun@ 100442d8     libpng:pngrutil.obj
 0002:000032fc       ??_C@_05GDHACFMB@1?42?43?$AA@ 100442fc     libpng:pngrutil.obj
 0002:00003304       ??_C@_0P@KJIHHBLD@?5using?5zstream?$AA@ 10044304     libpng:pngrutil.obj
 0002:00003314       ??_C@_0BC@HNCILENJ@zstream?5unclaimed?$AA@ 10044314     libpng:pngrutil.obj
 0002:00003328       ??_C@_0BG@GCPIOAHM@extra?5compressed?5data?$AA@ 10044328     libpng:pngrutil.obj
 0002:00003340       ??_C@_0BD@GFBMLKLH@invalid?5chunk?5type?$AA@ 10044340     libpng:pngrutil.obj
 0002:00003354       ??_C@_0CD@FPHNEGJK@invalid?5user?5transform?5pixel?5dep@ 10044354     libpng:pngrutil.obj
 0002:00003378       ??_C@_0BJ@EGFCIELD@internal?5row?5width?5error?$AA@ 10044378     libpng:pngrutil.obj
 0002:00003394       ??_C@_0CE@DMJCLOFE@internal?5row?5size?5calculation?5er@ 10044394     libpng:pngrutil.obj
 0002:000033b8       ??_C@_0BJ@DILPAFHB@internal?5row?5logic?5error?$AA@ 100443b8     libpng:pngrutil.obj
 0002:000033d4       ??_C@_0CN@PNKHKIBI@Row?5has?5too?5many?5bytes?5to?5alloca@ 100443d4     libpng:pngrutil.obj
 0002:00003404       ??_C@_09BJGMGMHA@CRC?5error?$AA@ 10044404     libpng:pngrutil.obj
 0002:00003410       ??_C@_07MALOAKCI@invalid?$AA@ 10044410     libpng:pngrutil.obj
 0002:00003418       ??_C@_0N@LIMFFBPG@out?5of?5place?$AA@ 10044418     libpng:pngrutil.obj
 0002:00003428       ??_C@_0BD@PLPEDAEI@bKGD?5must?5be?5after?$AA@ 10044428     libpng:pngrutil.obj
 0002:0000343c       ??_C@_0BD@NJKCAGJC@tRNS?5must?5be?5after?$AA@ 1004443c     libpng:pngrutil.obj
 0002:00003450       ??_C@_0BJ@CHOIBJOP@ignored?5in?5grayscale?5PNG?$AA@ 10044450     libpng:pngrutil.obj
 0002:0000346c       ??_C@_0N@POFAPNKG@missing?5IHDR?$AA@ 1004446c     libpng:pngrutil.obj
 0002:0000347c       ??_C@_0P@HLDILOEK@invalid?5values?$AA@ 1004447c     libpng:pngrutil.obj
 0002:0000348c       ??_C@_0BC@CBGHBEBH@too?5many?5profiles?$AA@ 1004448c     libpng:pngrutil.obj
 0002:000034a0       ??_C@_0M@INJFOOOH@bad?5keyword?$AA@ 100444a0     libpng:pngrutil.obj
 0002:000034ac       ??_C@_0BH@KIAOMNIJ@bad?5compression?5method?$AA@ 100444ac     libpng:pngrutil.obj
 0002:000034c4       ??_C@_0O@BNNCBLEN@out?5of?5memory?$AA@ 100444c4     libpng:pngrutil.obj
 0002:000034d4       ??_C@_0BL@MHLOEJAP@invalid?5with?5alpha?5channel?$AA@ 100444d4     libpng:pngrutil.obj
 0002:000034f0       ??_C@_0O@BGLHAEFA@invalid?5index?$AA@ 100444f0     libpng:pngrutil.obj
 0002:00003500       ??_C@_0N@FNKMFOEC@invalid?5data?$AA@ 10044500     libpng:pngrutil.obj
 0002:00003510       ??_C@_0BL@OJIHHCAK@unrecognized?5equation?5type?$AA@ 10044510     libpng:pngrutil.obj
 0002:0000352c       ??_C@_0BI@LAIHDGGP@invalid?5parameter?5count?$AA@ 1004452c     libpng:pngrutil.obj
 0002:00003544       ??_C@_0BB@CJAEGFPG@bad?5width?5format?$AA@ 10044544     libpng:pngrutil.obj
 0002:00003558       ??_C@_0BC@EEJECMAN@bad?5height?5format?$AA@ 10044558     libpng:pngrutil.obj
 0002:0000356c       ??_C@_0BE@DNKCMKFH@non?9positive?5height?$AA@ 1004456c     libpng:pngrutil.obj
 0002:00003580       ??_C@_0BD@PGENKNPL@non?9positive?5width?$AA@ 10044580     libpng:pngrutil.obj
 0002:00003594       ??_C@_0N@HLAECGBB@invalid?5unit?$AA@ 10044594     libpng:pngrutil.obj
 0002:000035a4       ??_C@_0BF@LLHBOPCG@bad?5compression?5info?$AA@ 100445a4     libpng:pngrutil.obj
 0002:000035bc       ??_C@_0BI@EMEPIKPK@no?5space?5in?5chunk?5cache?$AA@ 100445bc     libpng:pngrutil.obj
 0002:000035d4       ??_C@_0BJ@OGKNBOLG@unhandled?5critical?5chunk?$AA@ 100445d4     libpng:pngrutil.obj
 0002:000035f0       ??_C@_0BE@EFPCKDCF@Too?5much?5image?5data?$AA@ 100445f0     libpng:pngrutil.obj
 0002:00003604       ??_C@_0BG@OKGHHCLP@Extra?5compressed?5data?$AA@ 10044604     libpng:pngrutil.obj
 0002:0000361c       ??_C@_0BG@EIEOOJHA@Not?5enough?5image?5data?$AA@ 1004461c     libpng:pngrutil.obj
 0002:00003634       ??_C@_0BM@JALLIJNF@internal?5error?3?5array?5alloc?$AA@ 10044634     libpng:pngmem.obj
 0002:00003650       ??_C@_0BO@KBIBCEFP@internal?5error?3?5array?5realloc?$AA@ 10044650     libpng:pngmem.obj
 0002:00003670       ??_C@_0O@NALGGDJF@Out?5of?5memory?$AA@ 10044670     libpng:pngmem.obj
 0002:00003680       _unz_copyright             10044680     zlib:unzip.obj
 0002:00003f80       ??_C@_0BH@FGKKJGOC@incorrect?5length?5check?$AA@ 10044f80     zlib:inflate.obj
 0002:00003f98       ??_C@_0BF@MEIGEHBE@incorrect?5data?5check?$AA@ 10044f98     zlib:inflate.obj
 0002:00003fb0       ??_C@_0BO@ECPMAOGG@invalid?5distance?5too?5far?5back?$AA@ 10044fb0     zlib:inflate.obj
 0002:00003fd0       ??_C@_0BG@LBKINIKP@invalid?5distance?5code?$AA@ 10044fd0     zlib:inflate.obj
 0002:00003fe8       ??_C@_0BM@FFFLPBBC@invalid?5literal?1length?5code?$AA@ 10044fe8     zlib:inflate.obj
 0002:00004004       ??_C@_0BG@GMDFCBGP@invalid?5distances?5set?$AA@ 10045004     zlib:inflate.obj
 0002:0000401c       ??_C@_0BM@IIMGAINC@invalid?5literal?1lengths?5set?$AA@ 1004501c     zlib:inflate.obj
 0002:00004038       ??_C@_0BK@BMMPFBBH@invalid?5bit?5length?5repeat?$AA@ 10045038     zlib:inflate.obj
 0002:00004054       ??_C@_0BJ@HDEPPGOH@invalid?5code?5lengths?5set?$AA@ 10045054     zlib:inflate.obj
 0002:00004070       ??_C@_0CE@GMIGFPBB@too?5many?5length?5or?5distance?5symb@ 10045070     zlib:inflate.obj
 0002:00004094       ??_C@_0BN@LGAADGOK@invalid?5stored?5block?5lengths?$AA@ 10045094     zlib:inflate.obj
 0002:000040b4       ??_C@_0BD@PJCBIDD@invalid?5block?5type?$AA@ 100450b4     zlib:inflate.obj
 0002:000040c8       ??_C@_0BE@GONKLEPM@header?5crc?5mismatch?$AA@ 100450c8     zlib:inflate.obj
 0002:000040dc       ??_C@_0BJ@BLBBCOMO@unknown?5header?5flags?5set?$AA@ 100450dc     zlib:inflate.obj
 0002:000040f8       ??_C@_0BH@LIBMMIGA@incorrect?5header?5check?$AA@ 100450f8     zlib:inflate.obj
 0002:00004110       ??_C@_0BE@EMOGCLGO@invalid?5window?5size?$AA@ 10045110     zlib:inflate.obj
 0002:00004124       ??_C@_0BL@IHKGDAEE@unknown?5compression?5method?$AA@ 10045124     zlib:inflate.obj
 0002:00004140       _unity_z_deflate_copyright 10045140     zlib:deflate.obj
 0002:000061f8       ??_C@_02GMLFBBN@wb?$AA@    100471f8     zlib:ioapi.obj
 0002:000061fc       ??_C@_03HMFOOINA@r?$CLb?$AA@ 100471fc     zlib:ioapi.obj
 0002:00006200       ??_C@_02JDPG@rb?$AA@       10047200     zlib:ioapi.obj
 0002:00006204       ??_C@_0BF@CJFPCCEG@incompatible?5version?$AA@ 10047204     zlib:zutil.obj
 0002:0000621c       ??_C@_0N@DFPGLBGC@buffer?5error?$AA@ 1004721c     zlib:zutil.obj
 0002:0000622c       ??_C@_0L@HAHMBNLP@data?5error?$AA@ 1004722c     zlib:zutil.obj
 0002:00006238       ??_C@_0N@MKKNPMJD@stream?5error?$AA@ 10047238     zlib:zutil.obj
 0002:00006248       ??_C@_0L@KIJFAKBJ@file?5error?$AA@ 10047248     zlib:zutil.obj
 0002:00006254       ??_C@_0L@FNAOCBOG@stream?5end?$AA@ 10047254     zlib:zutil.obj
 0002:00006260       ??_C@_0BA@MOKMMFOD@need?5dictionary?$AA@ 10047260     zlib:zutil.obj
 0002:00006270       _z_errmsg                  10047270     zlib:zutil.obj
 0002:00006298       _inflate_copyright         10047298     zlib:inftrees.obj
 0002:00006a10       _unity_z_dist_code         10047a10     zlib:trees.obj
 0002:00006c10       _unity_z_length_code       10047c10     zlib:trees.obj
 0002:00006e00       ??_C@_0M@GNHGCLPL@Flash9g?4ocx?$AA@ 10047e00     CrashHandlerLib:CrashHandler.obj
 0002:00006e0c       ??_C@_0M@KGCKPIFO@Flash9f?4ocx?$AA@ 10047e0c     CrashHandlerLib:CrashHandler.obj
 0002:00006e18       ??_C@_0M@CALOIKPA@Flash9e?4ocx?$AA@ 10047e18     CrashHandlerLib:CrashHandler.obj
 0002:00006e24       ??_C@_0M@OLOCFJFF@Flash9d?4ocx?$AA@ 10047e24     CrashHandlerLib:CrashHandler.obj
 0002:00006e30       ??_C@_0M@PGOHGJON@Flash9c?4ocx?$AA@ 10047e30     CrashHandlerLib:CrashHandler.obj
 0002:00006e3c       ??_C@_0M@DNLLLKEI@Flash9b?4ocx?$AA@ 10047e3c     CrashHandlerLib:CrashHandler.obj
 0002:00006e48       ??_C@_0BH@FJLNIMJF@Shockwave?53d?5Asset?4x32?$AA@ 10047e48     CrashHandlerLib:CrashHandler.obj
 0002:00006e60       ??_C@_0BB@IKCEGOCJ@AcroIEHelper?4dll?$AA@ 10047e60     CrashHandlerLib:CrashHandler.obj
 0002:00006e74       ??_C@_0O@CLCBIAFH@WebHelper?4dll?$AA@ 10047e74     CrashHandlerLib:CrashHandler.obj
 0002:00006e84       ??_C@_0N@IAEGOPOO@Download?4dll?$AA@ 10047e84     CrashHandlerLib:CrashHandler.obj
 0002:00006e94       ??_C@_09IMMMOKKM@ole32?4dll?$AA@ 10047e94     CrashHandlerLib:CrashHandler.obj
 0002:00006ea0       ??_C@_0M@BLDKPNFN@mswsock?4dll?$AA@ 10047ea0     CrashHandlerLib:CrashHandler.obj
 0002:00006eac       ??_C@_0L@BKDAKGAC@dirapi?4dll?$AA@ 10047eac     CrashHandlerLib:CrashHandler.obj
 0002:00006eb8       ??_C@_0M@PONHDOCA@ieframe?4dll?$AA@ 10047eb8     CrashHandlerLib:CrashHandler.obj
 0002:00006ec4       ??_C@_0L@KIABCLL@mshtml?4dll?$AA@ 10047ec4     CrashHandlerLib:CrashHandler.obj
 0002:00006ed0       ??_C@_0L@PHODAIAG@RPCRT4?4dll?$AA@ 10047ed0     CrashHandlerLib:CrashHandler.obj
 0002:00006edc       ??_C@_0N@BIPHMCIB@wmnetmgr?4dll?$AA@ 10047edc     CrashHandlerLib:CrashHandler.obj
 0002:00006eec       ??_C@_0BC@DIMOMKIE@QuickTimeH264?4qtx?$AA@ 10047eec     CrashHandlerLib:CrashHandler.obj
 0002:00006f00       ??_C@_0N@IIMHDAPA@Explorer?4EXE?$AA@ 10047f00     CrashHandlerLib:CrashHandler.obj
 0002:00006f10       ??_C@_09FLKFJBLM@ntdll?4dll?$AA@ 10047f10     CrashHandlerLib:CrashHandler.obj
 0002:00006f1c       ??_C@_0L@CDHGNOIF@Flash9?4ocx?$AA@ 10047f1c     CrashHandlerLib:CrashHandler.obj
 0002:00006f28       ??_C@_0M@DAPOODEJ@firefox?4exe?$AA@ 10047f28     CrashHandlerLib:CrashHandler.obj
 0002:00006f34       ??_C@_0N@NLIHOLOP@iexplore?4exe?$AA@ 10047f34     CrashHandlerLib:CrashHandler.obj
 0002:00006f44       ??_7ExecutionEnvironment@unity@@6B@ 10047f44     CrashHandlerLib:CrashHandler.obj
 0002:00006f4c       ??_7CrashReporter@unity@@6B@ 10047f4c     CrashHandlerLib:CrashHandler.obj
 0002:00006f5c       ??_C@_0BK@LFBKEMAM@?$CFd?9?$CF02d?9?$CF02d_?$CF02d?$CF02d?$CF02d?$AA@ 10047f5c     CrashHandlerLib:CrashHandler.obj
 0002:00006f78       ??_C@_0BC@MNIKNFKD@MiniDumpWriteDump?$AA@ 10047f78     CrashHandlerLib:CrashHandler.obj
 0002:00006f8c       ??_C@_1BI@NIJBKGEB@?$AAD?$AAB?$AAG?$AAH?$AAE?$AAL?$AAP?$AA?4?$AAD?$AAL?$AAL?$AA?$AA@ 10047f8c     CrashHandlerLib:CrashHandler.obj
 0002:00006fa4       ??_C@_02PCIJFNDE@?$AN?6?$AA@ 10047fa4     CrashHandlerLib:CrashHandler.obj
 0002:00006fa8       ??_C@_0BN@MIOLEDFL@?5?5?5ProdVer?3?5?5?5?5?$CFd?4?$CFd?4?$CFd?4?$CFd?$AN?6?$AA@ 10047fa8     CrashHandlerLib:CrashHandler.obj
 0002:00006fc8       ??_C@_0BN@NPPLIEOE@?5?5?5FileVer?3?5?5?5?5?$CFd?4?$CFd?4?$CFd?4?$CFd?$AN?6?$AA@ 10047fc8     CrashHandlerLib:CrashHandler.obj
 0002:00006fe8       ??_C@_0BE@BINIANHA@?5?5?5FileDesc?3?5?5?5?$CFs?$AN?6?$AA@ 10047fe8     CrashHandlerLib:CrashHandler.obj
 0002:00006ffc       ??_C@_0BE@PIDFFMIN@?5?5?5Product?3?5?5?5?5?$CFs?$AN?6?$AA@ 10047ffc     CrashHandlerLib:CrashHandler.obj
 0002:00007010       ??_C@_0BE@KFIOGAPA@?5?5?5Company?3?5?5?5?5?$CFs?$AN?6?$AA@ 10048010     CrashHandlerLib:CrashHandler.obj
 0002:00007024       ??_C@_0L@GDBIPFOJ@Version?3?$AN?6?$AA@ 10048024     CrashHandlerLib:CrashHandler.obj
 0002:00007030       ??_C@_0CE@LFDKMBCN@File?5Size?3?5?5?$CF?910d?5?5File?5Time?3?5?5?$CF@ 10048030     CrashHandlerLib:CrashHandler.obj
 0002:00007054       ??_C@_0CJ@KDNBAJGK@Image?5Base?3?50x?$CF08x?5?5Image?5Size?3?5@ 10048054     CrashHandlerLib:CrashHandler.obj
 0002:00007080       ??_C@_04LLEBNMDN@?$CFs?$AN?6?$AA@ 10048080     CrashHandlerLib:CrashHandler.obj
 0002:00007088       ??_C@_0M@JNMGKHJJ@Module?5?$CFd?$AN?6?$AA@ 10048088     CrashHandlerLib:CrashHandler.obj
 0002:00007094       ??_C@_0CJ@EHIHMCME@?$CFd?5MB?5user?5address?5space?5?$FL?$CFd?5MB?5@ 10048094     CrashHandlerLib:CrashHandler.obj
 0002:000070c0       ??_C@_0CC@DEEBIKPO@?$CFd?5MB?5paging?5file?5?$FL?$CFd?5MB?5free?$FN?4?$AN@ 100480c0     CrashHandlerLib:CrashHandler.obj
 0002:000070e4       ??_C@_0CG@CEBKILLG@?$CFd?5MB?5physical?5memory?5?$FL?$CFd?5MB?5fre@ 100480e4     CrashHandlerLib:CrashHandler.obj
 0002:0000710c       ??_C@_0BG@KCAIBNBE@?$CFd?$CF?$CF?5memory?5in?5use?4?$AN?6?$AA@ 1004810c     CrashHandlerLib:CrashHandler.obj
 0002:00007124       ??_C@_0BB@GEKHAOPD@?$CFs?0?5run?5by?5?$CFs?4?$AN?6?$AA@ 10048124     CrashHandlerLib:CrashHandler.obj
 0002:00007138       ??_C@_07NBCGADJA@Unknown?$AA@ 10048138     CrashHandlerLib:CrashHandler.obj
 0002:00007140       ??_C@_0BI@JNCPBKJH@Error?5occurred?5at?5?$CFs?4?$AN?6?$AA@ 10048140     CrashHandlerLib:CrashHandler.obj
 0002:00007158       ??_C@_0BK@KPJFIGIL@an?5Unknown?5exception?5type?$AA@ 10048158     CrashHandlerLib:CrashHandler.obj
 0002:00007174       ??_C@_0BK@HOJFPEEB@a?5Microsoft?5C?$CL?$CL?5Exception?$AA@ 10048174     CrashHandlerLib:CrashHandler.obj
 0002:00007190       ??_C@_0BM@LDHCKNKI@a?5DLL?5Initialization?5Failed?$AA@ 10048190     CrashHandlerLib:CrashHandler.obj
 0002:000071ac       ??_C@_0BB@LJENMGNL@a?5Stack?5Overflow?$AA@ 100481ac     CrashHandlerLib:CrashHandler.obj
 0002:000071c0       ??_C@_0BJ@HMGNLHOK@a?5Privileged?5Instruction?$AA@ 100481c0     CrashHandlerLib:CrashHandler.obj
 0002:000071dc       ??_C@_0BE@CDPGECPC@an?5Integer?5Overflow?$AA@ 100481dc     CrashHandlerLib:CrashHandler.obj
 0002:000071f0       ??_C@_0BK@FNOEEFCK@an?5Integer?5Divide?5by?5Zero?$AA@ 100481f0     CrashHandlerLib:CrashHandler.obj
 0002:0000720c       ??_C@_0BC@CICINNDB@a?5Float?5Underflow?$AA@ 1004820c     CrashHandlerLib:CrashHandler.obj
 0002:00007220       ??_C@_0BE@DOBFFDCD@a?5Float?5Stack?5Check?$AA@ 10048220     CrashHandlerLib:CrashHandler.obj
 0002:00007234       ??_C@_0BB@LAJAGHGH@a?5Float?5Overflow?$AA@ 10048234     CrashHandlerLib:CrashHandler.obj
 0002:00007248       ??_C@_0BK@NACDCIPD@a?5Float?5Invalid?5Operation?$AA@ 10048248     CrashHandlerLib:CrashHandler.obj
 0002:00007264       ??_C@_0BH@HGODNPMP@a?5Float?5Inexact?5Result?$AA@ 10048264     CrashHandlerLib:CrashHandler.obj
 0002:0000727c       ??_C@_0BH@PIHGMMNI@a?5Float?5Divide?5by?5Zero?$AA@ 1004827c     CrashHandlerLib:CrashHandler.obj
 0002:00007294       ??_C@_0BJ@LCJBHHL@a?5Float?5Denormal?5Operand?$AA@ 10048294     CrashHandlerLib:CrashHandler.obj
 0002:000072b0       ??_C@_0BI@DFIFOIBG@a?5Array?5Bounds?5Exceeded?$AA@ 100482b0     CrashHandlerLib:CrashHandler.obj
 0002:000072c8       ??_C@_0BH@HOHCDFKK@an?5Invalid?5Disposition?$AA@ 100482c8     CrashHandlerLib:CrashHandler.obj
 0002:000072e0       ??_C@_0BL@DFCKDLHL@a?5Noncontinuable?5Exception?$AA@ 100482e0     CrashHandlerLib:CrashHandler.obj
 0002:000072fc       ??_C@_0BH@CMGOADMI@an?5Illegal?5Instruction?$AA@ 100482fc     CrashHandlerLib:CrashHandler.obj
 0002:00007314       ??_C@_0M@JNBECNGI@a?5No?5Memory?$AA@ 10048314     CrashHandlerLib:CrashHandler.obj
 0002:00007320       ??_C@_0BB@DKICMMFA@an?5In?5Page?5Error?$AA@ 10048320     CrashHandlerLib:CrashHandler.obj
 0002:00007334       ??_C@_0BE@GLOKLDAN@an?5Access?5Violation?$AA@ 10048334     CrashHandlerLib:CrashHandler.obj
 0002:00007348       ??_C@_0N@JLDHOHAI@a?5Breakpoint?$AA@ 10048348     CrashHandlerLib:CrashHandler.obj
 0002:00007358       ??_C@_0BI@IPDDFHBH@a?5Datatype?5Misalignment?$AA@ 10048358     CrashHandlerLib:CrashHandler.obj
 0002:00007370       ??_C@_0BA@MNEFCPPO@a?5Control?9Break?$AA@ 10048370     CrashHandlerLib:CrashHandler.obj
 0002:00007380       ??_C@_0M@FNOJOPNP@a?5Control?9C?$AA@ 10048380     CrashHandlerLib:CrashHandler.obj
 0002:0000738c       ??_C@_0CL@OMKINDCC@Exception?5encountered?5during?5sta@ 1004838c     CrashHandlerLib:CrashHandler.obj
 0002:000073b8       ??_C@_02HAOIJKIC@?$CFc?$AA@ 100483b8     CrashHandlerLib:CrashHandler.obj
 0002:000073bc       ??_C@_09CMIEKKHO@?5?5?5?5?5?5?5?5?5?$AA@ 100483bc     CrashHandlerLib:CrashHandler.obj
 0002:000073c8       ??_C@_08FCCPIPOA@0x?$CF08x?3?5?$AA@ 100483c8     CrashHandlerLib:CrashHandler.obj
 0002:000073d4       ??_C@_05ECIELPFL@?$CF08x?5?$AA@ 100483d4     CrashHandlerLib:CrashHandler.obj
 0002:000073dc       ??_C@_0N@MCABBBJA@?$AN?6?$AN?6Stack?3?$AN?6?$AA@ 100483dc     CrashHandlerLib:CrashHandler.obj
 0002:000073ec       ??_C@_0CN@DPHIKGID@EFlags?3?50x?$CF08x?5?5ESP?3?50x?$CF08x?5?5Seg@ 100483ec     CrashHandlerLib:CrashHandler.obj
 0002:0000741c       ??_C@_0CN@FNEAJLBC@EIP?3?5?5?5?50x?$CF08x?5?5EBP?3?50x?$CF08x?5?5Seg@ 1004841c     CrashHandlerLib:CrashHandler.obj
 0002:0000744c       ??_C@_0CN@HMCEKAPI@EBX?3?5?5?5?50x?$CF08x?5?5ECX?3?50x?$CF08x?5?5EDX@ 1004844c     CrashHandlerLib:CrashHandler.obj
 0002:0000747c       ??_C@_0CN@HFPOGCDG@EDI?3?5?5?5?50x?$CF08x?5?5ESI?3?50x?$CF08x?5?5EAX@ 1004847c     CrashHandlerLib:CrashHandler.obj
 0002:000074ac       ??_C@_0L@BIIJGCKB@Context?3?$AN?6?$AA@ 100484ac     CrashHandlerLib:CrashHandler.obj
 0002:000074b8       ??_7DefaultExecutionEnvironment@unity@@6B@ 100484b8     CrashHandlerLib:CrashHandler.obj
 0002:000074c0       ??_7DefaultCrashReporter@unity@@6B@ 100484c0     CrashHandlerLib:CrashHandler.obj
 0002:000074d0       ??_C@_1BG@OPOAEFEM@?$AAD?$AAe?$AAl?$AAe?$AAt?$AAe?$AA?$CF?$AA0?$AA2?$AAd?$AA?$AA@ 100484d0     CrashHandlerLib:CrashHandler.obj
 0002:000074e8       ??_C@_0L@DFHNJDMN@Error?5dump?$AA@ 100484e8     CrashHandlerLib:CrashHandler.obj
 0002:000074f4       ??_C@_1M@NPFJGIEI@?$AAO?$AAo?$AAp?$AAs?$AA?$CB?$AA?$AA@ 100484f4     CrashHandlerLib:CrashHandler.obj
 0002:00007500       ??_C@_0IP@KBGJLEGI@The?5game?5crashed?4?6The?5crash?5repo@ 10048500     CrashHandlerLib:CrashHandler.obj
 0002:00007590       ??_C@_0BG@OJAHPGIL@?$AN?6?$DN?$DN?5?$FLend?5of?5?$CFs?$FN?5?$DN?$DN?$AN?6?$AA@ 10048590     CrashHandlerLib:CrashHandler.obj
 0002:000075a8       ??_C@_09EGLJBNGG@error?4log?$AA@ 100485a8     CrashHandlerLib:CrashHandler.obj
 0002:000075b4       ??_C@_03MMEAEOBL@?$DP?$DP?5?$AA@ 100485b4     CrashHandlerLib:CrashHandler.obj
 0002:000075b8       ??_C@_05CNDJFPDP@?$CF02x?5?$AA@ 100485b8     CrashHandlerLib:CrashHandler.obj
 0002:000075c0       ??_C@_0BF@PEDFBGMK@?$AN?6Bytes?5at?5CS?3EIP?3?$AN?6?$AA@ 100485c0     CrashHandlerLib:CrashHandler.obj
 0002:000075d8       ??_C@_02DKCKIIND@?$CFs?$AA@ 100485d8     CrashHandlerLib:CrashHandler.obj
 0002:000075dc       ??_C@_0CP@PADPOHII@?$CFs?5location?5?$CF08x?5caused?5an?5acces@ 100485dc     CrashHandlerLib:CrashHandler.obj
 0002:0000760c       ??_C@_08CPFAPHAF@Write?5to?$AA@ 1004860c     CrashHandlerLib:CrashHandler.obj
 0002:00007618       ??_C@_09JHOILLPP@Read?5from?$AA@ 10048618     CrashHandlerLib:CrashHandler.obj
 0002:00007624       ??_C@_19NLLMBBJO@?$AAT?$AAi?$AAm?$AAe?$AA?$AA@ 10048624     CrashHandlerLib:CrashHandler.obj
 0002:00007630       ??_C@_0DI@HKPLNEGL@?$CFs?5caused?5?$CFs?5?$CI0x?$CF08x?$CJ?$AN?6?5?5in?5modu@ 10048630     CrashHandlerLib:CrashHandler.obj
 0002:00007668       ??_C@_0BF@KGHEJPDC@?$CFs?5?$FLversion?3?5?$CFs?$FN?$AN?6?$AN?6?$AA@ 10048668     CrashHandlerLib:CrashHandler.obj
 0002:00007680       ??_C@_09LGNEKANH@Error?5log?$AA@ 10048680     CrashHandlerLib:CrashHandler.obj
 0002:0000768c       ??_C@_1BE@FAIENDFF@?$AAF?$AAi?$AAl?$AAe?$AAs?$AAP?$AAa?$AAt?$AAh?$AA?$AA@ 1004868c     CrashHandlerLib:CrashHandler.obj
 0002:000076a0       ??_C@_19GFDACHI@?$AAI?$AAn?$AAf?$AAo?$AA?$AA@ 100486a0     CrashHandlerLib:CrashHandler.obj
 0002:000076ac       ??_C@_1BA@HJNHGNPD@?$AAA?$AAp?$AAp?$AAN?$AAa?$AAm?$AAe?$AA?$AA@ 100486ac     CrashHandlerLib:CrashHandler.obj
 0002:000076bc       ??_C@_09HIBDPELJ@crash?4dmp?$AA@ 100486bc     CrashHandlerLib:CrashHandler.obj
 0002:000076c8       ??_C@_06DIBIFALP@crash_?$AA@ 100486c8     CrashHandlerLib:CrashHandler.obj
 0002:000076d0       ??_C@_06PHKFGJCD@Crash_?$AA@ 100486d0     CrashHandlerLib:CrashHandler.obj
 0002:000076d8       ??_C@_01KICIPPFI@?2?$AA@   100486d8     CrashHandlerLib:MiniVersion.obj
 0002:000076dc       ??_C@_0BM@CEKPECKE@?2StringFileInfo?2?$CF04x?$CF04x?2?$CFs?$AA@ 100486dc     CrashHandlerLib:MiniVersion.obj
 0002:000076f8       ??_C@_0BJ@KPNNKBCP@?2VarFileInfo?2Translation?$AA@ 100486f8     CrashHandlerLib:MiniVersion.obj
 0002:00007714       ??_C@_0M@MNPNDAHP@ProductName?$AA@ 10048714     CrashHandlerLib:MiniVersion.obj
 0002:00007720       ??_C@_0BA@IMJFJNNG@FileDescription?$AA@ 10048720     CrashHandlerLib:MiniVersion.obj
 0002:00007730       ??_C@_0M@DHIAIDA@CompanyName?$AA@ 10048730     CrashHandlerLib:MiniVersion.obj
 0002:0000774c       ??_7WindowsFileTool@unity@@6B@ 1004874c     CrashHandlerLib:WindowsFileTool.obj
 0002:00007764       ??_7WindowsFileToolImpl@detail@unity@@6B@ 10048764     CrashHandlerLib:WindowsFileTool.obj
 0002:0000777c       __FPinit                   1004877c     LIBCMT:_fpinit_.obj
 0002:00007810       ??_C@_05KLBDPFGC@e?$CL000?$AA@ 10048810     LIBCMT:cvt.obj
 0002:00007880       ??_C@_03IIINPABG@tan?$AA@  10048880     LIBCMT:_libm_error_.obj
 0002:00007884       ??_C@_03LALBNOCG@cos?$AA@  10048884     LIBCMT:_libm_error_.obj
 0002:00007888       ??_C@_03BLEJJJBH@sin?$AA@  10048888     LIBCMT:_libm_error_.obj
 0002:0000788c       ??_C@_04EHEDPDJG@modf?$AA@ 1004888c     LIBCMT:_libm_error_.obj
 0002:00007894       ??_C@_05PBJFFIGL@floor?$AA@ 10048894     LIBCMT:_libm_error_.obj
 0002:0000789c       ??_C@_04GFPJNGEK@ceil?$AA@ 1004889c     LIBCMT:_libm_error_.obj
 0002:000078a4       ??_C@_04MLLJIGOK@atan?$AA@ 100488a4     LIBCMT:_libm_error_.obj
 0002:000078ac       ??_C@_05EOHGHCHD@exp10?$AA@ 100488ac     LIBCMT:_libm_error_.obj
 0002:000078b4       ??_C@_04PDIFKINK@acos?$AA@ 100488b4     LIBCMT:_libm_error_.obj
 0002:000078bc       ??_C@_04FIHNOPOL@asin?$AA@ 100488bc     LIBCMT:_libm_error_.obj
 0002:000078c4       ??_C@_05HGHHAHAP@log10?$AA@ 100488c4     LIBCMT:_libm_error_.obj
 0002:000078cc       ??_C@_03KHJOGHMM@exp?$AA@  100488cc     LIBCMT:_libm_error_.obj
 0002:000078d0       ??_C@_03JGHBODFD@pow?$AA@  100488d0     LIBCMT:_libm_error_.obj
 0002:000078d4       ??_C@_0L@KDOEJCKC@_nextafter?$AA@ 100488d4     LIBCMT:_fpexcept_.obj
 0002:000078e0       ??_C@_05JGDBENOH@_logb?$AA@ 100488e0     LIBCMT:_fpexcept_.obj
 0002:000078e8       ??_C@_03ONILCKOB@_yn?$AA@  100488e8     LIBCMT:_fpexcept_.obj
 0002:000078ec       ??_C@_03NAKIGLHK@_y1?$AA@  100488ec     LIBCMT:_fpexcept_.obj
 0002:000078f0       ??_C@_03MJLDFKDL@_y0?$AA@  100488f0     LIBCMT:_fpexcept_.obj
 0002:000078f4       ??_C@_05GKKHEGJL@frexp?$AA@ 100488f4     LIBCMT:_fpexcept_.obj
 0002:000078fc       ??_C@_04KEPJIHGP@fmod?$AA@ 100488fc     LIBCMT:_fpexcept_.obj
 0002:00007904       ??_C@_06MEIMCGCF@_hypot?$AA@ 10048904     LIBCMT:_fpexcept_.obj
 0002:0000790c       ??_C@_05KBKMEMPO@_cabs?$AA@ 1004890c     LIBCMT:_fpexcept_.obj
 0002:00007914       ??_C@_05CEJMAHNP@ldexp?$AA@ 10048914     LIBCMT:_fpexcept_.obj
 0002:0000791c       ??_C@_04ODHECPBC@fabs?$AA@ 1004891c     LIBCMT:_fpexcept_.obj
 0002:00007924       ??_C@_04EIAKFFMI@sqrt?$AA@ 10048924     LIBCMT:_fpexcept_.obj
 0002:0000792c       ??_C@_05KNGEOGJB@atan2?$AA@ 1004892c     LIBCMT:_fpexcept_.obj
 0002:00007934       ??_C@_04FJHINJAO@tanh?$AA@ 10048934     LIBCMT:_fpexcept_.obj
 0002:0000793c       ??_C@_04HPJJNFIM@cosh?$AA@ 1004893c     LIBCMT:_fpexcept_.obj
 0002:00007944       ??_C@_04COOMCNPB@sinh?$AA@ 10048944     LIBCMT:_fpexcept_.obj
 0002:0000b290       __infinity                 1004c290     LIBCMT:_87tran_.obj
 0002:0000b29a       __minfinity                1004c29a     LIBCMT:_87tran_.obj
 0002:0000b2a4       __logemax                  1004c2a4     LIBCMT:_87tran_.obj
 0002:0000b2ca       __OP_EXPjmptab             1004c2ca     LIBCMT:_87tran_.obj
 0002:0000b2f0       __indefinite               1004c2f0     LIBCMT:_87disp_.obj
 0002:0000b2fa       __piby2                    1004c2fa     LIBCMT:_87disp_.obj
 0002:0000b328       __DEFAULT_CW_in_mem        1004c328     LIBCMT:_common_.obj
 0002:0000b32a       __pi_by_2_to_61            1004c32a     LIBCMT:_common_.obj
 0002:0000b384       ??_C@_06IMKFLFPG@1?$CDQNAN?$AA@ 1004c384     LIBCMT:_x10fout_.obj
 0002:0000b38c       ??_C@_05DNEBIAHO@1?$CDINF?$AA@ 1004c38c     LIBCMT:_x10fout_.obj
 0002:0000b394       ??_C@_05PHHOCPM@1?$CDIND?$AA@ 1004c394     LIBCMT:_x10fout_.obj
 0002:0000b39c       ??_C@_06PGGFOGJG@1?$CDSNAN?$AA@ 1004c39c     LIBCMT:_x10fout_.obj
 0002:0000b3a4       ??_C@_03ILLHFMNI@?5?7?6?$AA@ 1004c3a4     DownloadManager.obj
 0002:0000b3a8       ??_C@_04LOAJBDKD@true?$AA@ 1004c3a8     DownloadManager.obj
 0002:0000b3b0       ??_C@_01NBENCBCI@?$CK?$AA@ 1004c3b0     DownloadManager.obj
 0002:0000b3b2       ??_C@_00CNPNBAHC@?$AA@     1004c3b2     DownloadManager.obj
 0002:0000b3b4       ??_C@_05BCHGOAMK@https?$AA@ 1004c3b4     DownloadManager.obj
 0002:0000b3bc       ??_C@_04IAFLKNP@http?$AA@  1004c3bc     DownloadManager.obj
 0002:0000b3c4       ??_C@_01HIHLOKLC@1?$AA@    1004c3c4     DownloadManager.obj
 0002:0000b3c8       ??_C@_06LKIIGAOE@domain?$AA@ 1004c3c8     DownloadManager.obj
 0002:0000b3d0       ??_C@_08JFIEPMDA@to?9ports?$AA@ 1004c3d0     DownloadManager.obj
 0002:0000b3dc       ??_C@_06CKKGAKDB@secure?$AA@ 1004c3dc     DownloadManager.obj
 0002:0000b3e4       ??_C@_0BC@NDLBAJIF@allow?9access?9from?$AA@ 1004c3e4     DownloadManager.obj
 0002:0000b3f8       ??_C@_02GNMIELFD@?$DN?$DO?$AA@ 1004c3f8     DownloadManager.obj
 0002:0000b3fc       ??_C@_01BJJEKLCA@?$CC?$AA@ 1004c3fc     DownloadManager.obj
 0002:0000b400       ??_C@_03GACAABJG@?3?1?1?$AA@ 1004c400     DownloadManager.obj
 0002:0000b404       ??_C@_01EOFPKCAF@?$EA?$AA@ 1004c404     DownloadManager.obj
 0002:0000b408       ??_C@_01JLIPDDHJ@?3?$AA@   1004c408     DownloadManager.obj
 0002:0000b40c       ??_C@_01KMDKNFGN@?1?$AA@   1004c40c     DownloadManager.obj
 0002:0000b410       ??_C@_08MFLLBFBE@https?3?1?1?$AA@ 1004c410     DownloadManager.obj
 0002:0000b41c       ??_C@_07FGAOOBMN@http?3?1?1?$AA@ 1004c41c     DownloadManager.obj
 0002:0000b424       ??_C@_0BB@OKKAFLPH@?1crossdomain?4xml?$AA@ 1004c424     DownloadManager.obj
 0002:0000b438       ??_C@_0BM@PAPJHAGI@invalid?5map?1set?$DMT?$DO?5iterator?$AA@ 1004c438     DownloadManager.obj
 0002:0000b454       ??_C@_0BI@CFPLBAOH@invalid?5string?5position?$AA@ 1004c454     DownloadManager.obj
 0002:0000b46c       ??_C@_0BB@MOGOBHAF@list?$DMT?$DO?5too?5long?$AA@ 1004c46c     DownloadManager.obj
 0002:0000b480       ??_C@_0BA@JFNIOLAK@string?5too?5long?$AA@ 1004c480     DownloadManager.obj
 0002:0000b490       ??_C@_0BE@JONHPENG@map?1set?$DMT?$DO?5too?5long?$AA@ 1004c490     DownloadManager.obj
 0002:0000b4a4       ??_7DownloaderNetscape@@6B@ 1004c4a4     DownloadManager.obj
 0002:0000b4b4       ??_C@_1CK@OEHDHPKK@?$AAU?$AAn?$AAi?$AAt?$AAy?$AA?4?$AAC?$AAo?$AAn?$AAt?$AAe?$AAx?$AAt?$AAS?$AAu?$AAb?$AAm?$AAe?$AAn?$AAu?$AA?$AA@ 1004c4b4     ContextMenuWindowClass.obj
 0002:0000b4e0       ??_C@_0BD@OLBABOEK@vector?$DMT?$DO?5too?5long?$AA@ 1004c4e0     ContextSubmenu.obj
 0002:0000b4f4       ??_C@_02GFKOMOKH@?5?$CI?$AA@ 1004c4f4     UnityWebPlayerPlugin.obj
 0002:0000b4f8       ??_C@_03NLJIHOMM@?5?9?5?$AA@ 1004c4f8     UnityWebPlayerPlugin.obj
 0002:0000b4fc       ??_C@_01PKGAHCOL@?$CJ?$AA@ 1004c4fc     UnityWebPlayerPlugin.obj
 0002:0000b500       ??_C@_0M@BICCDHJH@AppleWebKit?$AA@ 1004c500     UnityWebPlayerPlugin.obj
 0002:0000b50c       ??_C@_06MFKEHBAP@Safari?$AA@ 1004c50c     UnityWebPlayerPlugin.obj
 0002:0000b514       ??_C@_06ELAFFBDJ@Chrome?$AA@ 1004c514     UnityWebPlayerPlugin.obj
 0002:0000b51c       ??_C@_07MGBJGBAB@Firefox?$AA@ 1004c51c     UnityWebPlayerPlugin.obj
 0002:0000b524       ??_C@_1CE@HHEHNMBK@?$AAU?$AAn?$AAi?$AAt?$AAy?$AAI?$AAn?$AAt?$AAe?$AAr?$AAm?$AAe?$AAd?$AAi?$AAa?$AAt?$AAe?$AA?$AA@ 1004c524     UnityWebPlayerPlugin.obj
 0002:0000b548       ??_C@_1O@MOBNNEMB@?$AAB?$AAU?$AAT?$AAT?$AAO?$AAN?$AA?$AA@ 1004c548     UnityWebPlayerPlugin.obj
 0002:0000b558       ??_C@_0BP@GHHJGHOC@document?4location?4reload?$CItrue?$CJ?$AA@ 1004c558     UnityWebPlayerPlugin.obj
 0002:0000b578       ??_C@_0BG@FFDHPOJA@Closing?5plugin?5window?$AA@ 1004c578     UnityWebPlayerPlugin.obj
 0002:0000b590       ??_C@_0BN@GMFCBLJI@Error?5launching?5Unity?5Player?$AA@ 1004c590     UnityWebPlayerPlugin.obj
 0002:0000b5b0       ??_C@_0P@GDACEMPM@Unknown?5error?4?$AA@ 1004c5b0     UnityWebPlayerPlugin.obj
 0002:0000b5c0       ??_C@_0BP@JBAAPNFM@Times?3?5download?5?$CF?41f?5load?5?$CF?41f?$AA@ 1004c5c0     UnityWebPlayerPlugin.obj
 0002:0000b5e0       ??_C@_1BM@GMKBAEMF@?$AAE?$AAr?$AAr?$AAo?$AAr?$AA?5?$AAd?$AAe?$AAt?$AAa?$AAi?$AAl?$AAs?$AA?$AA@ 1004c5e0     UnityWebPlayerPlugin.obj
 0002:0000b5fc       ??_C@_1CC@BKDLMOOJ@?$AAI?$AAn?$AAs?$AAt?$AAa?$AAl?$AAl?$AA?5?$AAM?$AAa?$AAn?$AAu?$AAa?$AAl?$AAl?$AAy?$AA?$AA@ 1004c5fc     UnityWebPlayerPlugin.obj
 0002:0000b620       ??_C@_1BI@FILNOEDB@?$AAD?$AAe?$AAv?$AAe?$AAl?$AAo?$AAp?$AAm?$AAe?$AAn?$AAt?$AA?$AA@ 1004c620     UnityWebPlayerPlugin.obj
 0002:0000b638       ??_C@_1CA@KODCIAHP@?$AAR?$AAe?$AAl?$AAe?$AAa?$AAs?$AAe?$AA?5?$AAC?$AAh?$AAa?$AAn?$AAn?$AAe?$AAl?$AA?$AA@ 1004c638     UnityWebPlayerPlugin.obj
 0002:0000b658       ??_C@_0DC@DGACCBPE@http?3?1?1www?4unity3d?4com?1about?9uni@ 1004c658     UnityWebPlayerPlugin.obj
 0002:0000b68c       ??_C@_1CK@PENAIPBB@?$AAU?$AAn?$AAi?$AAt?$AAy?$AA?5?$AAP?$AAl?$AAa?$AAy?$AAe?$AAr?$AA?5?$AA5?$AA?4?$AA3?$AA?4?$AA6?$AAf?$AA1?$AA?$AA@ 1004c68c     UnityWebPlayerPlugin.obj
 0002:0000b6b8       ??_C@_0CH@ELMAAEIA@http?3?1?1webplayer?4unity3d?4com?1set@ 1004c6b8     UnityWebPlayerPlugin.obj
 0002:0000b6e0       ??_C@_04LHHJCNI@_top?$AA@  1004c6e0     UnityWebPlayerPlugin.obj
 0002:0000b6e8       ??_C@_0DC@MMAFCOPA@http?3?1?1www?4unity3d?4com?1unity?9web@ 1004c6e8     UnityWebPlayerPlugin.obj
 0002:0000b71c       ??_7UnityWebPlayerPluginInstance@@6B@ 1004c71c     UnityWebPlayerPlugin.obj
 0002:0000b758       ??_C@_03ICICOMAL@yes?$AA@  1004c758     DownloadNetscape.obj
 0002:0000b75c       ??_C@_03LOJEKLML@src?$AA@  1004c75c     DownloadNetscape.obj
 0002:0000b760       ??_C@_0O@OLMICJDB@autoupdateURL?$AA@ 1004c760     DownloadNetscape.obj
 0002:0000b770       ??_C@_0BH@CDKCOKGN@autoupdateURLSignature?$AA@ 1004c770     DownloadNetscape.obj
 0002:0000b788       ??_C@_0BE@OEKLEGFK@disableExternalCall?$AA@ 1004c788     DownloadNetscape.obj
 0002:0000b79c       ??_C@_0BC@FIFCEAOE@disableFullscreen?$AA@ 1004c79c     DownloadNetscape.obj
 0002:0000b7b0       ??_C@_0BA@DBLEKPBD@enableDebugging?$AA@ 1004c7b0     DownloadNetscape.obj
 0002:0000b7c0       ??_C@_0BD@MKIFFFNJ@disableContextMenu?$AA@ 1004c7c0     DownloadNetscape.obj
 0002:0000b7d4       ??_C@_0BD@BOENNFHP@firstFrameCallback?$AA@ 1004c7d4     DownloadNetscape.obj
 0002:0000b7e8       ??_C@_0BA@FDMAGDNN@GetUnityVersion?$AA@ 1004c7e8     NetscapeScriptablePlugin.obj
 0002:0000b7f8       ??_C@_0BB@HGPINCD@GetPluginVersion?$AA@ 1004c7f8     NetscapeScriptablePlugin.obj
 0002:0000b80c       ??_C@_0M@KOLHOMFC@SendMessage?$AA@ 1004c80c     NetscapeScriptablePlugin.obj
 0002:0000b818       ??_C@_0BK@NPGCJGFE@send?5to?5obj?5?$CFs?5method?5?$CFs?6?$AA@ 1004c818     NetscapeScriptablePlugin.obj
 0002:0000b834       ??_C@_0BP@MPGKJOHA@SendMessage?3?5Array?5is?5too?5deep?$AA@ 1004c834     NetscapeScriptablePlugin.obj
 0002:0000b854       ??_C@_06IJDLPEM@length?$AA@ 1004c854     NetscapeScriptablePlugin.obj
 0002:0000b85c       ??_C@_0CB@CDBINFIN@SendMessage?3?5Bad?5array?5size?5?$FL?$CFi?$FN@ 1004c85c     NetscapeScriptablePlugin.obj
 0002:0000b880       ??_C@_0CE@CAHBBMFM@SendMessage?3?5Object?5is?5not?5an?5ar@ 1004c880     NetscapeScriptablePlugin.obj
 0002:0000b8a4       ??_C@_0CJ@EJOGFANH@SendMessage?3?5Unsupported?5value?5t@ 1004c8a4     NetscapeScriptablePlugin.obj
 0002:0000b8d0       ??_C@_07GLCKMMHF@5?43?46f1?$AA@ 1004c8d0     NetscapeScriptablePlugin.obj
 0002:0000b8d8       ??_C@_0BJ@LFKILBNM@Could?5not?5window?5object?4?$AA@ 1004c8d8     NetscapeScriptablePlugin.obj
 0002:0000b8f4       ??_C@_08CBBFJFMD@location?$AA@ 1004c8f4     NetscapeScriptablePlugin.obj
 0002:0000b900       ??_C@_04CMBCJJJD@href?$AA@ 1004c900     NetscapeScriptablePlugin.obj
 0002:0000b908       ??_C@_0BM@CJHJDNMP@Could?5not?5get?5href?5property?$AA@ 1004c908     NetscapeScriptablePlugin.obj
 0002:0000b924       ??_C@_0CA@GHNAICC@Could?5not?5get?5location?5property?$AA@ 1004c924     NetscapeScriptablePlugin.obj
 0002:00016938       ??_7Download@@6B@          10057938     WebCommonLib:Download.obj
 0002:00016944       ??_C@_1CK@HMNJKCPC@?$AAU?$AAn?$AAi?$AAt?$AAy?$AA?2?$AAU?$AAn?$AAi?$AAt?$AAy?$AAW?$AAe?$AAb?$AAP?$AAl?$AAa?$AAy?$AAe?$AAr?$AA?$AA@ 10057944     WebCommonLib:PluginManager.obj
 0002:00016970       ??_C@_1CA@DPHJPKMD@?$AAU?$AAn?$AAi?$AAt?$AAy?$AA?2?$AAW?$AAe?$AAb?$AAP?$AAl?$AAa?$AAy?$AAe?$AAr?$AA?$AA@ 10057970     WebCommonLib:PluginManager.obj
 0002:00016990       ??_C@_0BK@KNADHGF@UnityWebPlayerUpdateMutex?$AA@ 10057990     WebCommonLib:PluginManager.obj
 0002:000169ac       ??_C@_04FKNHOCAN@Mono?$AA@ 100579ac     WebCommonLib:PluginManager.obj
 0002:000169b4       ??_C@_0M@KMGBBLKI@UnityPlayer?$AA@ 100579b4     WebCommonLib:PluginManager.obj
 0002:000169c0       ??_C@_0M@GGKKKOHP@UnityPlugin?$AA@ 100579c0     WebCommonLib:PluginManager.obj
 0002:000169cc       ??_C@_1CO@OIDNHGMC@?$AAU?$AAn?$AAi?$AAt?$AAy?$AA?4?$AAT?$AAi?$AAm?$AAe?$AAr?$AAW?$AAi?$AAn?$AAd?$AAo?$AAw?$AAC?$AAl?$AAa?$AAs?$AAs?$AA?$AA@ 100579cc     WebCommonLib:PluginManager.obj
 0002:000169fc       ??_C@_0BN@HPKFFGJB@UnityWebPlayerReleaseChannel?$AA@ 100579fc     WebCommonLib:PluginManager.obj
 0002:00016a1c       ??_C@_06IMCHFAKP@Stable?$AA@ 10057a1c     WebCommonLib:PluginManager.obj
 0002:00016a24       ??_C@_0BK@JHGENDFB@UnityWebPlayerDevelopment?$AA@ 10057a24     WebCommonLib:PluginManager.obj
 0002:00016a40       ??_C@_0N@GOEEHPBL@?9Development?$AA@ 10057a40     WebCommonLib:PluginManager.obj
 0002:00016a50       ??_C@_06JECEJHIJ@loader?$AA@ 10057a50     WebCommonLib:PluginManager.obj
 0002:00016a58       ??_C@_06BALNJMNP@player?$AA@ 10057a58     WebCommonLib:PluginManager.obj
 0002:00016a60       ??_C@_04JLBGMNAJ@mono?$AA@ 10057a60     WebCommonLib:PluginManager.obj
 0002:00016a68       ??_C@_03MGHMBJCF@log?$AA@  10057a68     WebCommonLib:PluginManager.obj
 0002:00016a6c       ??_C@_0BC@DPLABALD@manager_debug?4txt?$AA@ 10057a6c     WebCommonLib:PluginManager.obj
 0002:00016a80       ??_C@_04LCMACLFG@?4txt?$AA@ 10057a80     WebCommonLib:PluginManager.obj
 0002:00016a88       ??_C@_08PNAGJHAJ@manager_?$AA@ 10057a88     WebCommonLib:PluginManager.obj
 0002:00016a94       ??_C@_0BJ@IFIALDCJ@UNITY_WEBPLAYER_LOG_FILE?$AA@ 10057a94     WebCommonLib:PluginManager.obj
 0002:00016ab0       ??_C@_0BF@OKIBDGIF@5?43?46f1_29055738eb78?$AA@ 10057ab0     WebCommonLib:PluginManager.obj
 0002:00016ac8       ??_C@_0BN@LIIMKABC@Manager?5starting?0?5version?5?$CFs?$AA@ 10057ac8     WebCommonLib:PluginManager.obj
 0002:00016ae8       ??_C@_0BF@ODJKNKKD@UnityBugReporter?4exe?$AA@ 10057ae8     WebCommonLib:PluginManager.obj
 0002:00016b00       ??_C@_0BL@DKPBGNIC@Unity?55?43?46f1_29055738eb78?$AA@ 10057b00     WebCommonLib:PluginManager.obj
 0002:00016b1c       ??_C@_0BB@CDIOOPAI@Unity?5Web?5Player?$AA@ 10057b1c     WebCommonLib:PluginManager.obj
 0002:00016b30       ??_C@_0BB@IJAGOILP@Manager?5log?5file?$AA@ 10057b30     WebCommonLib:PluginManager.obj
 0002:00016b44       ??_C@_0N@LGMFGCMI@Log?5file?5?$CD?$CFi?$AA@ 10057b44     WebCommonLib:PluginManager.obj
 0002:00016b54       ??_C@_0BD@HAHLKBOP@Getting?5update?3?5?$CFs?$AA@ 10057b54     WebCommonLib:PluginManager.obj
 0002:00016b68       ??_C@_02DJGKEECL@?4?4?$AA@ 10057b68     WebCommonLib:PluginManager.obj
 0002:00016b6c       ??_C@_0L@MFNFJPGK@info?4plist?$AA@ 10057b6c     WebCommonLib:PluginManager.obj
 0002:00016b78       ??_C@_0BA@ELDKACDE@CFBundleVersion?$AA@ 10057b78     WebCommonLib:PluginManager.obj
 0002:00016b88       ??_C@_0BA@PGBPBICB@ApplySelfUpdate?$AA@ 10057b88     WebCommonLib:PluginManager.obj
 0002:00016b98       ??_C@_0BG@GINNJFIF@Unity?9WebPlugin?9Self?9?$AA@ 10057b98     WebCommonLib:PluginManager.obj
 0002:00016bb0       ??_C@_0CF@PCNNNLPK@ApplySelfUpdate?5failed?5to?5decomp@ 10057bb0     WebCommonLib:PluginManager.obj
 0002:00016bd8       ??_C@_0DE@FGMCEABG@ApplySelfUpdate?5failed?3?5update?5h@ 10057bd8     WebCommonLib:PluginManager.obj
 0002:00016c0c       ??_C@_1BK@MBABLNAI@?$AAP?$AAl?$AAu?$AAg?$AAi?$AAn?$AAB?$AAu?$AAn?$AAd?$AAl?$AAe?$AA?$AA@ 10057c0c     WebCommonLib:PluginManager.obj
 0002:00016c28       ??_C@_0CI@FAEBKPCE@ApplyUpdate?3?5got?5unknown?5bundle?$DN@ 10057c28     WebCommonLib:PluginManager.obj
 0002:00016c50       ??_C@_0CC@EHDNDOCH@ApplyUpdate?3?5bundle?$DN?$CFi?5version?$DN?$CF@ 10057c50     WebCommonLib:PluginManager.obj
 0002:00016c74       ??_C@_0BG@PILFFPEF@UnityWebPluginUpdate?9?$AA@ 10057c74     WebCommonLib:PluginManager.obj
 0002:00016c8c       ??_C@_0DI@LNOAKKEP@ApplyUpdate?5?$CIbundle?$DN?$CFi?5version?$DN?$CF@ 10057c8c     WebCommonLib:PluginManager.obj
 0002:00016cc4       ??_C@_0CB@GAMJOCB@Invalid?5auto?9update?5file?5format?4@ 10057cc4     WebCommonLib:PluginManager.obj
 0002:00016ce8       ??_C@_0DP@FDNCFAOI@ApplyUpdate?5?$CIbundle?$DN?$CFi?5version?$DN?$CF@ 10057ce8     WebCommonLib:PluginManager.obj
 0002:00016d28       ??_C@_0DD@JKBPMOIH@Invalid?5auto?9update?5file?5?$CIno?5rev@ 10057d28     WebCommonLib:PluginManager.obj
 0002:00016d5c       ??_C@_0DM@DGDPIJJK@ApplyUpdate?5?$CIbundle?$DN?$CFi?5version?$DN?$CF@ 10057d5c     WebCommonLib:PluginManager.obj
 0002:00016d98       ??_C@_0DE@KONPCKPF@Invalid?5auto?9update?5file?5?$CIrevisi@ 10057d98     WebCommonLib:PluginManager.obj
 0002:00016dcc       ??_C@_1BK@JAJFBAFH@?$AAP?$AAl?$AAa?$AAy?$AAe?$AAr?$AAB?$AAu?$AAn?$AAd?$AAl?$AAe?$AA?$AA@ 10057dcc     WebCommonLib:PluginManager.obj
 0002:00016de8       ??_C@_1BG@IBPLJLGK@?$AAM?$AAo?$AAn?$AAo?$AAB?$AAu?$AAn?$AAd?$AAl?$AAe?$AA?$AA@ 10057de8     WebCommonLib:PluginManager.obj
 0002:00016e00       ??_C@_1DC@MGMCFNCA@?$AAS?$AAO?$AAF?$AAT?$AAW?$AAA?$AAR?$AAE?$AA?2?$AAU?$AAn?$AAi?$AAt?$AAy?$AA?2?$AAW?$AAe?$AAb?$AAP?$AAl?$AAa?$AAy?$AAe?$AAr?$AA?$AA@ 10057e00     WebCommonLib:PluginManager.obj
 0002:00016e34       ??_C@_1BE@DNDHOCGP@?$AAD?$AAi?$AAr?$AAe?$AAc?$AAt?$AAo?$AAr?$AAy?$AA?$AA@ 10057e34     WebCommonLib:PluginManager.obj
 0002:00016e48       ??_C@_1BI@BNFKGMFK@?$AAs?$AAh?$AAe?$AAl?$AAl?$AA3?$AA2?$AA?4?$AAd?$AAl?$AAl?$AA?$AA@ 10057e48     WebCommonLib:PluginManager.obj
 0002:00016e60       ??_C@_0BF@OMOLCJCE@SHGetKnownFolderPath?$AA@ 10057e60     WebCommonLib:PluginManager.obj
 0002:00016e78       ??_C@_1DC@JDEHIBLG@?$AAU?$AAn?$AAi?$AAt?$AAy?$AAW?$AAe?$AAb?$AAP?$AAl?$AAa?$AAy?$AAe?$AAr?$AAU?$AAp?$AAd?$AAa?$AAt?$AAe?$AA?4?$AAe?$AAx?$AAe?$AA?$AA@ 10057e78     WebCommonLib:PluginManager.obj
 0002:00016eac       ??_C@_05BPMFEJEA@5?4x?4x?$AA@ 10057eac     WebCommonLib:PluginManager.obj
 0002:00016eb4       ??_C@_0BN@HFHEPJHB@Failed?5to?5apply?5auto?9update?4?$AA@ 10057eb4     WebCommonLib:PluginManager.obj
 0002:00016ed4       ??_C@_0BC@KIADFMKJ@Update?5failed?3?5?$CFs?$AA@ 10057ed4     WebCommonLib:PluginManager.obj
 0002:00016ee8       ??_C@_0L@DKDHNGPJ@?9win32?4zip?$AA@ 10057ee8     WebCommonLib:PluginManager.obj
 0002:00016f04       ??_C@_0BP@IBDLJFM@UNITY_FORCE_DEVELOPMENT_PLUGIN?$AA@ 10057f04     WebCommonLib:WebPluginUtility.obj
 0002:00016f24       ??_C@_03IPHJCBHH@YES?$AA@  10057f24     WebCommonLib:WebPluginUtility.obj
 0002:00016f28       ??_C@_0BN@BDCNAGEB@UNITY_DISABLE_PLUGIN_UPDATES?$AA@ 10057f28     WebCommonLib:WebPluginUtility.obj
 0002:00016f48       ??_C@_02KAJCLHKP@no?$AA@   10057f48     WebCommonLib:WebPluginUtility.obj
 0002:00016f4c       ??_C@_0BO@LIBNJOEH@UNITY_FORCE_WEBPLAYER_VERSION?$AA@ 10057f4c     WebCommonLib:WebPluginUtility.obj
 0002:00016f6c       ??_C@_0BF@KOAHENNH@UNITY_KEEP_LOG_FILES?$AA@ 10057f6c     WebCommonLib:WebPluginUtility.obj
 0002:00016f84       ??_C@_1O@LBFOCELB@?$AAB?$AAI?$AAN?$AAA?$AAR?$AAY?$AA?$AA@ 10057f84     WebCommonLib:ProgressDisplayWin.obj
 0002:00016f94       ??_C@_1BA@DNKKBBGG@?$AAV?$AAe?$AAr?$AAd?$AAa?$AAn?$AAa?$AA?$AA@ 10057f94     WebCommonLib:ProgressDisplayWin.obj
 0002:00016fa4       ??_C@_04FGEHGIFJ@temp?$AA@ 10057fa4     WebCommonLib:PluginInstance.obj
 0002:00016fac       ??_C@_0O@GKOJBPMP@log_debug?4txt?$AA@ 10057fac     WebCommonLib:PluginInstance.obj
 0002:00016fbc       ??_C@_04HGOBOJMF@log_?$AA@ 10057fbc     WebCommonLib:PluginInstance.obj
 0002:00016fc8       ??_C@_0FO@PJADLOEP@Instance?5starting?0?5version?5?$CFs?0?5U@ 10057fc8     WebCommonLib:PluginInstance.obj
 0002:00017028       ??_C@_0BK@EMKBLCLG@Instance?5?$CFs?5shutting?5down?$AA@ 10058028     WebCommonLib:PluginInstance.obj
 0002:00017044       ??_C@_0M@COEHNKPE@Datafile?5?$CFs?$AA@ 10058044     WebCommonLib:PluginInstance.obj
 0002:00017050       ??_C@_0DF@BKLMMMBO@Setting?5error?5display?3?5?8?$CFs?8?0?5det@ 10058050     WebCommonLib:PluginInstance.obj
 0002:00017088       ??_C@_0DD@EECEFDD@Data?5file?5is?5corrupt?5?$CInot?5a?5Unit@ 10058088     WebCommonLib:PluginInstance.obj
 0002:000170bc       ??_C@_0BC@IFGHNOGB@Invalid?5data?5file?$AA@ 100580bc     WebCommonLib:PluginInstance.obj
 0002:000170d0       ??_C@_0BO@HCOGIMBD@Download?5failed?0?5please?5retry?$AA@ 100580d0     WebCommonLib:PluginInstance.obj
 0002:000170f0       ??_C@_0BN@FOIBJCAM@Failed?5to?5download?5data?5file?$AA@ 100580f0     WebCommonLib:PluginInstance.obj
 0002:00017110       ??_C@_0BI@DHBJAJGP@Unknown?5download?5status?$AA@ 10058110     WebCommonLib:PluginInstance.obj
 0002:00017128       ??_C@_0P@DHEBFDOP@Internal?5error?$AA@ 10058128     WebCommonLib:PluginInstance.obj
 0002:00017138       ??_C@_0CK@KENKOJJH@SendMessage?3?5no?5object?5or?5functi@ 10058138     WebCommonLib:PluginInstance.obj
 0002:00017164       ??_C@_1BC@GDMECMAK@?$AAk?$AAe?$AAr?$AAn?$AAe?$AAl?$AA3?$AA2?$AA?$AA@ 10058164     WebCommonLib:WinWebUtils.obj
 0002:00017178       ??_C@_0BL@OLEDJOGO@QueryUnbiasedInterruptTime?$AA@ 10058178     WebCommonLib:WinWebUtils.obj
 0002:00017194       ??_C@_0M@CJNAABJD@bordercolor?$AA@ 10058194     WebCommonLib:ProgressDisplay.obj
 0002:000171a0       ??_C@_09CIMBEKCH@textcolor?$AA@ 100581a0     WebCommonLib:ProgressDisplay.obj
 0002:000171ac       ??_C@_0BA@CPFCGCFN@backgroundcolor?$AA@ 100581ac     WebCommonLib:ProgressDisplay.obj
 0002:000171bc       ??_C@_0BA@NPDBPKI@backgroundimage?$AA@ 100581bc     WebCommonLib:ProgressDisplay.obj
 0002:000171cc       ??_C@_09GLHFJHOD@logoimage?$AA@ 100581cc     WebCommonLib:ProgressDisplay.obj
 0002:000171d8       ??_C@_0BD@BJGAMFCN@progressframeimage?$AA@ 100581d8     WebCommonLib:ProgressDisplay.obj
 0002:000171ec       ??_C@_0BB@GINBNKCI@progressbarimage?$AA@ 100581ec     WebCommonLib:ProgressDisplay.obj
 0002:00017200       ??_C@_0BA@NMIHJOMC@revisions?4plist?$AA@ 10058200     WebCommonLib:RevisionsQuery.obj
 0002:00017210       ??_C@_0CA@PKLBIJDO@UNITY_REVISIONS_REQUEST_TIMEOUT?$AA@ 10058210     WebCommonLib:RevisionsQuery.obj
 0002:00017230       ??_C@_0BO@HHGNNPHA@http?3?1?1webplayer?4unity3d?4com?1?$AA@ 10058230     WebCommonLib:RevisionsQuery.obj
 0002:00017250       ??_C@_0CH@FIMIHNAK@http?3?1?1autoupdate?9revision?4unity@ 10058250     WebCommonLib:RevisionsQuery.obj
 0002:00017278       ??_C@_0CC@LNCCEEBP@http?3?1?1wp?9360?4unity3d?4com?1unity3@ 10058278     WebCommonLib:RevisionsQuery.obj
 0002:0001729c       ??_C@_0BP@DGOBBOLP@UNITY_REDIRECT_DOWNLOAD_FOLDER?$AA@ 1005829c     WebCommonLib:RevisionsQuery.obj
 0002:000172bc       ??_C@_0CA@HFPCIPFM@UNITY_REDIRECT_REVISIONS_FOLDER?$AA@ 100582bc     WebCommonLib:RevisionsQuery.obj
 0002:000172dc       ??_C@_0BM@MAKDHPEO@autodownload_webplugin?93?4x?1?$AA@ 100582dc     WebCommonLib:RevisionsQuery.obj
 0002:000172f8       ??_C@_0CF@OMJMJMID@Global?5revisions?5download?5failed@ 100582f8     WebCommonLib:RevisionsQuery.obj
 0002:00017320       ??_C@_0FI@HHFPKAIA@Requesting?5plugin?5update?4?5Requir@ 10058320     WebCommonLib:RevisionsQuery.obj
 0002:00017378       ??_C@_0CF@LDGGDADO@Failed?5to?5parse?5global?5revisions@ 10058378     WebCommonLib:RevisionsQuery.obj
 0002:000173a0       ??_C@_0BC@LGPIDHBK@?5?$EA?$CG?$DL?3?$DM?$DO?$DN?$DP?$CC?8?1?2?$CB?$CD?$CF?$CL?$AA@ 100583a0     WebCommonLib:RevisionsQuery.obj
 0002:000173b4       ??_C@_05EHJIPHKB@?$CF?$CF?$CF2x?$AA@ 100583b4     WebCommonLib:RevisionsQuery.obj
 0002:000173bc       ??_C@_0O@JOAPDPIB@Referer?3?5?$CFs?$AN?6?$AA@ 100583bc     WebCommonLib:RevisionsQuery.obj
 0002:000173cc       ??_C@_01HNPIGOCE@?$CG?$AA@ 100583cc     WebCommonLib:RevisionsQuery.obj
 0002:000173d0       ??_C@_08INNCGMHH@content?$DN?$AA@ 100583d0     WebCommonLib:RevisionsQuery.obj
 0002:000173dc       ??_C@_05GDEIIDKP@page?$DN?$AA@ 100583dc     WebCommonLib:RevisionsQuery.obj
 0002:000173e4       ??_C@_06FKKAOKII@secid?$DN?$AA@ 100583e4     WebCommonLib:RevisionsQuery.obj
 0002:000173ec       ??_C@_04GFJLOHHD@?$CF?43f?$AA@ 100583ec     WebCommonLib:RevisionsQuery.obj
 0002:000173f4       ??_C@_0P@NIODGODB@lastQueryTime?$DN?$AA@ 100583f4     WebCommonLib:RevisionsQuery.obj
 0002:00017404       ??_C@_08BBLDJMAO@runtime?$DN?$AA@ 10058404     WebCommonLib:RevisionsQuery.obj
 0002:00017410       ??_C@_06FOAKIDDH@https?3?$AA@ 10058410     WebCommonLib:RevisionsQuery.obj
 0002:00017418       ??_C@_01OGPIMHDM@?$DP?$AA@ 10058418     WebCommonLib:RevisionsQuery.obj
 0002:0001741c       ??_C@_07BGIEAJGJ@unsecid?$AA@ 1005841c     WebCommonLib:RevisionsQuery.obj
 0002:00017424       ??_C@_01JOAMLHOP@?9?$AA@   10058424     WebCommonLib:RevisionsQuery.obj
 0002:00017428       ??_C@_0BP@DJADOAJD@Player?5hash?5?$CFs?5is?5blacklisted?6?$AA@ 10058428     WebCommonLib:RevisionsQuery.obj
 0002:00017448       ??_C@_05PNFNNPOP@secid?$AA@ 10058448     WebCommonLib:RevisionsQuery.obj
 0002:00017450       ??_C@_0BK@KIOKMILI@Player?5hash?5?$CFs?5not?5known?6?$AA@ 10058450     WebCommonLib:RevisionsQuery.obj
 0002:0001746c       ??_C@_0CA@DBIFNPPH@Player?5hash?5?$CFs?5not?5whitelisted?6?$AA@ 1005846c     WebCommonLib:RevisionsQuery.obj
 0002:00017490       ??_C@_0IF@MJHJDOBI@Can?8t?5load?5web?5player?5because?5it@ 10058490     WebCommonLib:RevisionsQuery.obj
 0002:00017518       ??_C@_0CF@MGBJCOC@Can?8t?5load?4?5Built?5with?5beta?5rele@ 10058518     WebCommonLib:RevisionsQuery.obj
 0002:00017540       ??_C@_07LPFPOAF@3?40?40a1?$AA@ 10058540     WebCommonLib:RevisionsQuery.obj
 0002:00017548       ??_C@_0ME@OHBBCMBL@The?5webplayer?5cannot?5load?5the?5sp@ 10058548     WebCommonLib:RevisionsQuery.obj
 0002:00017610       ??_C@_0EJ@CLEOIOLF@Cannot?5load?5?9?52?4x?5games?5are?5not?5@ 10058610     WebCommonLib:RevisionsQuery.obj
 0002:00017660       ??_C@_0HA@ILEEAHN@A?5newer?5version?5of?5Unity?5Web?5Pla@ 10058660     WebCommonLib:RevisionsQuery.obj
 0002:000176d0       ??_C@_0CC@PAAOMCCF@Failed?5to?5update?5Unity?5Web?5Playe@ 100586d0     WebCommonLib:RevisionsQuery.obj
 0002:000176f4       ??_C@_0BL@GBHABEEF@?6Please?5install?5manually?4?6?$AA@ 100586f4     WebCommonLib:RevisionsQuery.obj
 0002:00017710       ??_C@_0EO@LLGLLLGC@A?5newer?5version?5of?5Unity?5Web?5Pla@ 10058710     WebCommonLib:RevisionsQuery.obj
 0002:00017760       ??_C@_0HK@MMHHMMNH@A?5newer?5version?5of?5Unity?5Web?5Pla@ 10058760     WebCommonLib:RevisionsQuery.obj
 0002:000177e0       ??_C@_0FF@NCGMFGFL@A?5newer?5version?5of?5Unity?5Web?5Pla@ 100587e0     WebCommonLib:RevisionsQuery.obj
 0002:00017838       ??_C@_0GA@HFIKEGB@Requesting?5bundle?5?$CFd?5?$CI?$CFs?$CJ?5update@ 10058838     WebCommonLib:RevisionsQuery.obj
 0002:00017898       ??_C@_0HF@OFPOGCGI@Unity?5Web?5Player?5update?5finished@ 10058898     WebCommonLib:RevisionsQuery.obj
 0002:00017910       ??_C@_0BM@FLNDFOHO@Failed?5to?5parse?5version?3?5?$CFs?$AA@ 10058910     WebCommonLib:RevisionsQuery.obj
 0002:00017930       ??_C@_0FG@LHGJBAHM@Some?5files?5are?5missing?5or?5corrup@ 10058930     WebCommonLib:RevisionsQuery.obj
 0002:00017988       ??_C@_0CM@LDJOMPHD@Unity?5Web?5Player?5is?5not?5installe@ 10058988     WebCommonLib:RevisionsQuery.obj
 0002:000179b4       ??_C@_0M@PBILJBFF@monoVersion?$AA@ 100589b4     WebCommonLib:RevisionsQuery.obj
 0002:000179c0       ??_C@_0BE@OOGBEEJL@monoMinimumRevision?$AA@ 100589c0     WebCommonLib:RevisionsQuery.obj
 0002:000179d4       ??_C@_0DN@JAFFBJDE@Required?5mono?5revision?5is?50?5?$CIver@ 100589d4     WebCommonLib:RevisionsQuery.obj
 0002:00017a14       ??_C@_08PAMBCCJ@channels?$AA@ 10058a14     WebCommonLib:RevisionsQuery.obj
 0002:00017a20       ??_C@_07CPCPJPKL@version?$AA@ 10058a20     WebCommonLib:RevisionsQuery.obj
 0002:00017a28       ??_C@_0M@MEHAGKFI@channelName?$AA@ 10058a28     WebCommonLib:RevisionsQuery.obj
 0002:00017a34       ??_C@_0P@EIKOPGFE@latestRevision?$AA@ 10058a34     WebCommonLib:RevisionsQuery.obj
 0002:00017a44       ??_C@_0BA@OAPHKLHO@minimumRevision?$AA@ 10058a44     WebCommonLib:RevisionsQuery.obj
 0002:00017a54       ??_C@_04IBOFHAPJ@hide?$AA@ 10058a54     WebCommonLib:RevisionsQuery.obj
 0002:00017a5c       ??_C@_0BA@FLBBEFO@updateFilesPath?$AA@ 10058a5c     WebCommonLib:RevisionsQuery.obj
 0002:00017a6c       ??_C@_0CB@NEDKDKML@Timed?5out?5on?5global?5version?5info@ 10058a6c     WebCommonLib:RevisionsQuery.obj
 0002:00017a90       ??_C@_0N@IPLGBNNJ@https?3?1?1ssl?9?$AA@ 10058a90     WebCommonLib:RevisionsQuery.obj
 0002:00017aa0       ??_C@_0CD@BDPMEBHI@Verification?5of?5update?5URL?5faile@ 10058aa0     WebCommonLib:RevisionsQuery.obj
 0002:00017ac4       ??_C@_15GJMILFGI@?$AAa?$AAt?$AA?$AA@ 10058ac4     WebCommonLib:Logger.obj
 0002:00017acc       ??_C@_0DN@GJNGJFP@?9?9?9?9?9?9?9?9?9?9?9?9?9?9?9?9?9?9?9?9?9?9?9?9?9?9?9?9?9?9?9?9@ 10058acc     WebCommonLib:Logger.obj
 0002:00017b0c       ??_C@_0CA@FLJOKIJ@?$CF02i?$CF02i?$CF02i?5?$CF02i?3?$CF02i?3?$CF02i?5?$CFs?6?$AA@ 10058b0c     WebCommonLib:Logger.obj
 0002:00017b2c       ??_C@_04BCIDKIGN@dict?$AA@ 10058b2c     WebCommonLib:MiniXmlFile.obj
 0002:00017b34       ??_C@_15JJPIMNBO@?$AAr?$AAb?$AA?$AA@ 10058b34     WebCommonLib:MiniXmlFile.obj
 0002:00017b3c       ??_C@_03ICHNJLJF@key?$AA@  10058b3c     WebCommonLib:MiniXmlFile.obj
 0002:00017b40       ??_C@_06ICGJLFIM@string?$AA@ 10058b40     WebCommonLib:MiniXmlFile.obj
 0002:00017b48       ??_C@_05HIFJDKLD@array?$AA@ 10058b48     WebCommonLib:MiniXmlFile.obj
 0002:00017b50       ??_C@_1BM@LBJAMDKE@?$AAU?$AAn?$AAi?$AAn?$AAs?$AAt?$AAa?$AAl?$AAl?$AA?4?$AAe?$AAx?$AAe?$AA?$AA@ 10058b50     WebCommonLib:UpdaterProxy.obj
 0002:00017b6c       ??_C@_1CK@BFGAMPFN@?$AAU?$AAn?$AAi?$AAt?$AAy?$AAB?$AAu?$AAg?$AAR?$AAe?$AAp?$AAo?$AAr?$AAt?$AAe?$AAr?$AA?4?$AAe?$AAx?$AAe?$AA?$AA@ 10058b6c     WebCommonLib:UpdaterProxy.obj
 0002:00017b98       ??_C@_1BG@JMKNCDKP@?$AAi?$AAn?$AAf?$AAo?$AA?4?$AAp?$AAl?$AAi?$AAs?$AAt?$AA?$AA@ 10058b98     WebCommonLib:UpdaterProxy.obj
 0002:00017bb0       ??_C@_1CK@NCFLLGJH@?$AAU?$AAn?$AAi?$AAt?$AAy?$AAW?$AAe?$AAb?$AAP?$AAl?$AAu?$AAg?$AAi?$AAn?$AAA?$AAX?$AA?4?$AAo?$AAc?$AAx?$AA?$AA@ 10058bb0     WebCommonLib:UpdaterProxy.obj
 0002:00017bdc       ??_C@_1O@CBCBFMLE@?$AAl?$AAo?$AAa?$AAd?$AAe?$AAr?$AA?$AA@ 10058bdc     WebCommonLib:UpdaterProxy.obj
 0002:00017bec       ??_C@_1CA@JGJHDGMC@?$AAn?$AAp?$AAU?$AAn?$AAi?$AAt?$AAy?$AA3?$AAD?$AA3?$AA2?$AA?4?$AAd?$AAl?$AAl?$AA?$AA@ 10058bec     WebCommonLib:UpdaterProxy.obj
 0002:00017c0c       ??_C@_0BG@ECEMLJGH@Low?5Integrity?5Process?$AA@ 10058c0c     WebCommonLib:UpdaterProxy.obj
 0002:00017c24       ??_C@_0BJ@DPHOLMA@Medium?5Integrity?5Process?$AA@ 10058c24     WebCommonLib:UpdaterProxy.obj
 0002:00017c40       ??_C@_0BH@OHALMBKE@High?5Integrity?5Process?$AA@ 10058c40     WebCommonLib:UpdaterProxy.obj
 0002:00017c58       ??_C@_0BJ@LPECHJOM@System?5Integrity?5Process?$AA@ 10058c58     WebCommonLib:UpdaterProxy.obj
 0002:00017c74       ??_C@_0CB@MEMPDKHF@OpenServer?5failed?5w?1err?50x?$CF08lx?6@ 10058c74     WebCommonLib:UpdaterProxy.obj
 0002:00017c98       ??_C@_0CB@JAKBDDKN@OpenClient?5failed?5w?1err?50x?$CF08lx?6@ 10058c98     WebCommonLib:UpdaterProxy.obj
 0002:00017cbc       ??_C@_0DD@BIOBGEOC@Failed?5to?5create?5update?4?5Failed?5@ 10058cbc     WebCommonLib:UpdaterProxy.obj
 0002:00017cf0       ??_C@_0CJ@LOPGJMBA@Failed?5to?5create?5update?4?5Pipe?5is@ 10058cf0     WebCommonLib:UpdaterProxy.obj
 0002:00017d1c       ??_C@_0DM@EMLCFPKN@Failed?5to?5create?5update?4?5Failed?5@ 10058d1c     WebCommonLib:UpdaterProxy.obj
 0002:00017d88       ??_C@_0DH@PCGLNNFL@Failed?5to?5create?5update?4?5Failed?5@ 10058d88     WebCommonLib:UpdaterProxy.obj
 0002:00017dc0       ??_C@_0DI@GCCNECDH@Failed?5to?5create?5update?4?5Failed?5@ 10058dc0     WebCommonLib:UpdaterProxy.obj
 0002:00017df8       ??_C@_0DG@DFPGGFLG@Failed?5to?5create?5update?4?5Failed?5@ 10058df8     WebCommonLib:UpdaterProxy.obj
 0002:00017e30       ??_C@_0CC@GKAFOGEI@Failed?5to?5accept?5update?5response@ 10058e30     WebCommonLib:UpdaterProxy.obj
 0002:00017e9c       ??_C@_0DG@LGACJHHO@Failed?5to?5launch?5updater?4?5Failed@ 10058e9c     WebCommonLib:UpdaterProxy.obj
 0002:00017ed4       ??_C@_0DC@EPLMDKII@DetectProcessIntegrityLevel?5fail@ 10058ed4     WebCommonLib:UpdaterProxy.obj
 0002:00017f08       ??_C@_0CE@PJLDOJHO@Failed?5to?5create?5the?5updater?5pip@ 10058f08     WebCommonLib:UpdaterProxy.obj
 0002:00017f2c       ??_C@_0CJ@KMPCMEEK@Failed?5to?5get?5the?5AppContainerSi@ 10058f2c     WebCommonLib:UpdaterProxy.obj
 0002:00017f58       ??_C@_19BDAJEHDN@?$AAo?$AAp?$AAe?$AAn?$AA?$AA@ 10058f58     WebCommonLib:UpdaterProxy.obj
 0002:00017f64       ??_C@_0BI@COGIAMMC@AppContainer?5Sid?5is?5?$CFs?4?$AA@ 10058f64     WebCommonLib:UpdaterProxy.obj
 0002:00017f7c       ??_C@_13HOIJIPNN@?$AA?5?$AA?$AA@ 10058f7c     WebCommonLib:UpdaterProxy.obj
 0002:00017f80       ??_C@_0DB@CPLKKCPK@Failed?5to?5launch?5external?5update@ 10058f80     WebCommonLib:UpdaterProxy.obj
 0002:00017fb4       ??_C@_0CD@GOFIDPIH@Failed?5to?5open?5pipe?5w?1err?50x?$CF08l@ 10058fb4     WebCommonLib:UpdaterProxy.obj
 0002:00017fd8       ??_C@_0CD@NIICJOFE@Failed?5to?5launch?5internal?5update@ 10058fd8     WebCommonLib:UpdaterProxy.obj
 0002:00017ffc       ??_C@_0BJ@NKDJFPPG@Updater?5did?5not?5connect?4?$AA@ 10058ffc     WebCommonLib:UpdaterProxy.obj
 0002:00018018       ??_C@_0CC@EAEPNBDL@Updater?5did?5not?5accept?5handshake@ 10059018     WebCommonLib:UpdaterProxy.obj
 0002:0001803c       ??_C@_0CI@HLLNFCOL@Updater?5did?5not?5respond?5with?5han@ 1005903c     WebCommonLib:UpdaterProxy.obj
 0002:00018064       ??_C@_0CE@KEMKOFOB@Invalid?5updater?5handshake?5respon@ 10059064     WebCommonLib:UpdaterProxy.obj
 0002:00018088       ??_C@_0DB@FBNNHDJM@This?5machine?5does?5not?5support?5SS@ 10059088     WebCommonLib:UnityLoader.obj
 0002:000180bc       ??_C@_02MFDMBIJM@ok?$AA@   100590bc     WebCommonLib:UnityLoader.obj
 0002:000180c0       ??_C@_06OHCJKBJM@FAILED?$AA@ 100590c0     WebCommonLib:UnityLoader.obj
 0002:000180c8       ??_C@_0BB@ELCMOPBJ@loader?3?5start?5?$CFs?$AA@ 100590c8     WebCommonLib:UnityLoader.obj
 0002:000180dc       ??_C@_0BP@CANPMPBP@Failed?5to?5start?5Unity?5Player?4?6?$AA@ 100590dc     WebCommonLib:UnityLoader.obj
 0002:000180fc       ??_C@_0N@CMIJEDLE@wrap_oal?4dll?$AA@ 100590fc     WebCommonLib:UnityLoader.obj
 0002:0001810c       ??_C@_0BC@PFFLDINN@webplayer_win?4dll?$AA@ 1005910c     WebCommonLib:UnityLoader.obj
 0002:00018120       ??_C@_0BL@BNOMLOGP@Failed?5to?5copy?5Unity?5dll?4?6?$AA@ 10059120     WebCommonLib:UnityLoader.obj
 0002:0001813c       ??_C@_0BM@DGPLHPLG@Failed?5to?5copy?5OpenAL?5dll?4?6?$AA@ 1005913c     WebCommonLib:UnityLoader.obj
 0002:00018158       ??_C@_0CJ@IGGKBPOL@loader?3?5FAILED?5to?5copy?5player?5te@ 10059158     WebCommonLib:UnityLoader.obj
 0002:00018184       ??_C@_0O@JMNNPPIE@mono?91?9vc?4dll?$AA@ 10059184     WebCommonLib:UnityLoader.obj
 0002:00018194       ??_C@_0BK@JFDOPLNN@Failed?5to?5copy?5Mono?5dll?4?6?$AA@ 10059194     WebCommonLib:UnityLoader.obj
 0002:000181b0       ??_C@_0CH@CIMGECCG@loader?3?5FAILED?5to?5copy?5mono?5temp@ 100591b0     WebCommonLib:UnityLoader.obj
 0002:000181d8       ??_C@_0CA@HJKHEOFG@loader?3?5unity?5dll?5not?5found?3?5?$CFs?$AA@ 100591d8     WebCommonLib:UnityLoader.obj
 0002:000181f8       ??_C@_0BL@PHLPIFCK@Failed?5to?5load?5Unity?5dll?4?6?$AA@ 100591f8     WebCommonLib:UnityLoader.obj
 0002:00018214       ??_C@_0BF@ELKIJPCM@UnityWinWebStartData?$AA@ 10059214     WebCommonLib:UnityLoader.obj
 0002:0001822c       ??_C@_0BJ@BANHEFED@UnityWinWebSetParentInfo?$AA@ 1005922c     WebCommonLib:UnityLoader.obj
 0002:00018248       ??_C@_0BM@IGHMBOFJ@UnityWinWebToggleFullscreen?$AA@ 10059248     WebCommonLib:UnityLoader.obj
 0002:00018264       ??_C@_0BI@OFPLCJFB@UnityWinWebIsFullscreen?$AA@ 10059264     WebCommonLib:UnityLoader.obj
 0002:0001827c       ??_C@_0BB@KNLHMBLE@UnityWinWebClose?$AA@ 1005927c     WebCommonLib:UnityLoader.obj
 0002:00018290       ??_C@_0BI@GJABDPMF@UnityWinWebFinalCleanup?$AA@ 10059290     WebCommonLib:UnityLoader.obj
 0002:000182a8       ??_C@_0BE@PFIBMPDC@UnityWinWebSetPause?$AA@ 100592a8     WebCommonLib:UnityLoader.obj
 0002:000182bc       ??_C@_0BE@PCFJFBPD@UnityWinWebSetFocus?$AA@ 100592bc     WebCommonLib:UnityLoader.obj
 0002:000182d0       ??_C@_0BA@FGFJAMEB@UnityWinWebLoop?$AA@ 100592d0     WebCommonLib:UnityLoader.obj
 0002:000182e0       ??_C@_0BK@OCHBDOFG@UnityGetDisableFullscreen?$AA@ 100592e0     WebCommonLib:UnityLoader.obj
 0002:000182fc       ??_C@_0BF@MCDHKKPD@UnitySendWebMessages?$AA@ 100592fc     WebCommonLib:UnityLoader.obj
 0002:00018314       ??_C@_0BJ@NAEOKBPF@UnityExternalCallsLength?$AA@ 10059314     WebCommonLib:UnityLoader.obj
 0002:00018330       ??_C@_0BI@LDLIAKNK@UnityFetchExternalCalls?$AA@ 10059330     WebCommonLib:UnityLoader.obj
 0002:00018348       ??_C@_0BL@OIPDKBAD@UnityShouldShowContextMenu?$AA@ 10059348     WebCommonLib:UnityLoader.obj
 0002:00018364       ??_C@_0BK@MJHFKCBF@UnityProgressDataDownload?$AA@ 10059364     WebCommonLib:UnityLoader.obj
 0002:00018380       ??_C@_0BD@JHGPBAOD@UnityIsReadyToPlay?$AA@ 10059380     WebCommonLib:UnityLoader.obj
 0002:00018394       ??_C@_0O@PBEJMPLL@UnityGetError?$AA@ 10059394     WebCommonLib:UnityLoader.obj
 0002:000183a4       ??_C@_0BI@EMJOBHMM@UnityGetPlayerTargetFPS?$AA@ 100593a4     WebCommonLib:UnityLoader.obj
 0002:000183bc       ??_C@_0BD@NGNLJPKE@UnitySetParentInfo?$AA@ 100593bc     WebCommonLib:UnityLoader.obj
 0002:000183d0       ??_C@_0BG@IFAGFBPB@loader?3?5final?5cleanup?$AA@ 100593d0     WebCommonLib:UnityLoader.obj
 0002:000183e8       ??_C@_0BJ@CFLMAIAB@loader?3?5unload?5unity?5dll?$AA@ 100593e8     WebCommonLib:UnityLoader.obj
 0002:00018404       ??_C@_1BE@CNNBFHHP@?$AA3?$AA6?$AA0?$AAs?$AAe?$AA?4?$AAe?$AAx?$AAe?$AA?$AA@ 10059404     WebCommonLib:Pluginfor360Browser.obj
 0002:00018418       ??_C@_1BI@BEDCELPF@?$AA3?$AA6?$AA0?$AAg?$AAa?$AAm?$AAe?$AA?4?$AAe?$AAx?$AAe?$AA?$AA@ 10059418     WebCommonLib:Pluginfor360Browser.obj
 0002:00018430       ??_C@_1CA@DADGHINE@?$AAS?$AA?3?$AA?$CI?$AAM?$AAL?$AA?$DL?$AA?$DL?$AAN?$AAW?$AA?$DL?$AA?$DL?$AA?$DL?$AAL?$AAW?$AA?$CJ?$AA?$AA@ 10059430     WebCommonLib:PipeRoot.obj
 0002:00018450       ??_C@_15EFGCAOOD@?$AAD?$AA?3?$AA?$AA@ 10059450     WebCommonLib:PipeRoot.obj
 0002:00018458       ??_C@_1CG@LBGFFCMB@?$AA?$CI?$AAA?$AA?$DL?$AAO?$AAI?$AAC?$AAI?$AA?$DL?$AAG?$AAR?$AAG?$AAW?$AA?$DL?$AA?$DL?$AA?$DL?$AAA?$AAU?$AA?$CJ?$AA?$AA@ 10059458     WebCommonLib:PipeRoot.obj
 0002:00018480       ??_C@_1CC@BLDAHJFC@?$AA?$CI?$AAA?$AA?$DL?$AAO?$AAI?$AAC?$AAI?$AA?$DL?$AAG?$AAA?$AA?$DL?$AA?$DL?$AA?$DL?$AAB?$AAA?$AA?$CJ?$AA?$AA@ 10059480     WebCommonLib:PipeRoot.obj
 0002:000184a4       ??_C@_0BJ@JBDKPHIM@Software?2Unity?2WebPlayer?$AA@ 100594a4     WebCommonLib:GlobalPreferences.obj
 0002:000184c0       ??_C@_15MJDFFMKN@?$AAw?$AAb?$AA?$AA@ 100594c0     WebCommonLib:Decompressor.obj
 0002:000184c8       ??_C@_0P@JLFAABJN@UnityWebPlayer?$AA@ 100594c8     WebCommonLib:WebFileUtilities.obj
 0002:000184d8       ??_C@_13JOFGPIOO@?$AA?4?$AA?$AA@ 100594d8     WebCommonLib:WebFileUtilities.obj
 0002:000184dc       ??_C@_15DDHGOCBH@?$AA?4?$AA?4?$AA?$AA@ 100594dc     WebCommonLib:WebFileUtilities.obj
 0002:000184e4       ??_C@_06MFECMGFO@1?46?410?$AA@ 100594e4     WebCommonLib:ImageConversionCore.obj
 0002:000184ec       ??_C@_0L@BAFDDAPG@Read?5Error?$AA@ 100594ec     WebCommonLib:ImageConversionCore.obj
 0002:000184f8       ??_7ImageDecoder@@6B@      100594f8     WebCommonLib:ImageConversionCore.obj
 0002:00018508       ??_7PngDecoder@@6B@        10059508     WebCommonLib:ImageConversionCore.obj
 0002:00018518       ??_C@_08NBAAKOEL@UnityWeb?$AA@ 10059518     WebCommonLib:UnityWebStreamHeader.obj
 0002:00018524       ??_C@_07IMINOCOC@UnityFS?$AA@ 10059524     WebCommonLib:UnityWebStreamHeader.obj
 0002:0001852c       ??_C@_0CK@BHABGMFL@Verify?3?5failed?5to?5acquire?5contex@ 1005952c     WebCommonLib:Verification.obj
 0002:00018558       ??_C@_0CE@ENIIMKEC@Verify?3?5failed?5to?5import?5public?5@ 10059558     WebCommonLib:Verification.obj
 0002:0001857c       ??_C@_0BO@JOMKDGLN@Verify?3?5failed?5to?5create?5hash?$AA@ 1005957c     WebCommonLib:Verification.obj
 0002:0001859c       ??_C@_0BM@GFHCJDCH@Verify?3?5failed?5to?5hash?5data?$AA@ 1005959c     WebCommonLib:Verification.obj
 0002:000185b8       ??_C@_0DA@NNMFAGAK@GenerateHash?3?5failed?5to?5acquire?5@ 100595b8     WebCommonLib:Verification.obj
 0002:000185e8       ??_C@_0CO@OCMOPENC@GenerateHash?3?5failed?5to?5create?5h@ 100595e8     WebCommonLib:Verification.obj
 0002:00018618       ??_C@_0CK@LOGAKBCB@GenerateHash?3?5failed?5to?5hash?5dat@ 10059618     WebCommonLib:Verification.obj
 0002:00018644       ??_C@_0CP@IOPFFNJK@GenerateHash?3?5failed?5to?5get?5hash@ 10059644     WebCommonLib:Verification.obj
 0002:00018674       ??_C@_04NOJCDH@?$CF02x?$AA@ 10059674     WebCommonLib:Verification.obj
 0002:0001867c       ??_C@_05ONPNOBPM@?$CG?$CD38?$DL?$AA@ 1005967c     WebCommonLib:ezxml.obj
 0002:00018684       ??_C@_04DMIAPOKJ@amp?$DL?$AA@ 10059684     WebCommonLib:ezxml.obj
 0002:0001868c       ??_C@_05OMDPILML@?$CG?$CD39?$DL?$AA@ 1005968c     WebCommonLib:ezxml.obj
 0002:00018694       ??_C@_05HNAHLMAI@apos?$DL?$AA@ 10059694     WebCommonLib:ezxml.obj
 0002:0001869c       ??_C@_05OEOHBIJI@?$CG?$CD34?$DL?$AA@ 1005969c     WebCommonLib:ezxml.obj
 0002:000186a4       ??_C@_05LDHOCHGG@quot?$DL?$AA@ 100596a4     WebCommonLib:ezxml.obj
 0002:000186ac       ??_C@_05NHLEJEBI@?$CG?$CD62?$DL?$AA@ 100596ac     WebCommonLib:ezxml.obj
 0002:000186b4       ??_C@_03BHAAMAON@gt?$DL?$AA@ 100596b4     WebCommonLib:ezxml.obj
 0002:000186b8       ??_C@_05NEDAEAHG@?$CG?$CD60?$DL?$AA@ 100596b8     WebCommonLib:ezxml.obj
 0002:000186c0       ??_C@_03MAABEHOM@lt?$DL?$AA@ 100596c0     WebCommonLib:ezxml.obj
 0002:000186c4       ??_C@_0BJ@OKJBEMCM@?$FLerror?5near?5line?5?$CFd?$FN?3?5?$CFs?$AA@ 100596c4     WebCommonLib:ezxml.obj
 0002:000186e0       ??_C@_02ICNHGLNO@?$CG?$CD?$AA@ 100596e0     WebCommonLib:ezxml.obj
 0002:000186e4       ??_C@_01CLKCMJKC@?5?$AA@   100596e4     WebCommonLib:ezxml.obj
 0002:000186e8       ??_C@_0BN@EKAANKPM@unexpected?5closing?5tag?5?$DM?1?$CFs?$DO?$AA@ 100596e8     WebCommonLib:ezxml.obj
 0002:00018708       ??_C@_04FOLEBDDK@?7?$AN?6?5?$AA@ 10059708     WebCommonLib:ezxml.obj
 0002:00018710       ??_C@_03PJHHNEEI@xml?$AA@  10059710     WebCommonLib:ezxml.obj
 0002:00018714       ??_C@_0L@FLHGMILF@standalone?$AA@ 10059714     WebCommonLib:ezxml.obj
 0002:00018720       ??_C@_07BMOOGACG@?7?$AN?6?5?$DN?8?$CC?$AA@ 10059720     WebCommonLib:ezxml.obj
 0002:00018728       ??_C@_01PPODPGHN@?$DO?$AA@ 10059728     WebCommonLib:ezxml.obj
 0002:0001872c       ??_C@_01MNNFJEPP@?$DM?$AA@ 1005972c     WebCommonLib:ezxml.obj
 0002:00018730       ??_C@_08OMANJFFA@?$DM?$CBENTITY?$AA@ 10059730     WebCommonLib:ezxml.obj
 0002:0001873c       ??_C@_05COKBLNEG@?7?$AN?6?5?$CF?$AA@ 1005973c     WebCommonLib:ezxml.obj
 0002:00018744       ??_C@_0CA@HIBIOLGK@circular?5entity?5declaration?5?$CG?$CFs?$AA@ 10059744     WebCommonLib:ezxml.obj
 0002:00018764       ??_C@_09JFLAIMKP@?$DM?$CBATTLIST?$AA@ 10059764     WebCommonLib:ezxml.obj
 0002:00018770       ??_C@_0BD@JECACICL@unclosed?5?$DM?$CBATTLIST?$AA@ 10059770     WebCommonLib:ezxml.obj
 0002:00018784       ??_C@_05IHJHHGNM@?7?$AN?6?5?$DO?$AA@ 10059784     WebCommonLib:ezxml.obj
 0002:0001878c       ??_C@_0BE@OPHFANMD@malformed?5?$DM?$CBATTLIST?$AA@ 1005978c     WebCommonLib:ezxml.obj
 0002:000187a0       ??_C@_05MLPNBPGH@CDATA?$AA@ 100597a0     WebCommonLib:ezxml.obj
 0002:000187a8       ??_C@_08NCDGCBCC@NOTATION?$AA@ 100597a8     WebCommonLib:ezxml.obj
 0002:000187b4       ??_C@_05ICBEPCEK@?7?$AN?6?5?$CJ?$AA@ 100597b4     WebCommonLib:ezxml.obj
 0002:000187bc       ??_C@_06PMNJDCKO@?$CDFIXED?$AA@ 100597bc     WebCommonLib:ezxml.obj
 0002:000187c4       ??_C@_04FFDNBKGC@?$DM?$CB?9?9?$AA@ 100597c4     WebCommonLib:ezxml.obj
 0002:000187cc       ??_C@_03PNLDJJMO@?9?9?$DO?$AA@ 100597cc     WebCommonLib:ezxml.obj
 0002:000187d0       ??_C@_02HFBBBACF@?$DM?$DP?$AA@ 100597d0     WebCommonLib:ezxml.obj
 0002:000187d4       ??_C@_02GOEMJPDN@?$DP?$DO?$AA@ 100597d4     WebCommonLib:ezxml.obj
 0002:000187d8       ??_C@_0BB@CIDLNPKI@root?5tag?5missing?$AA@ 100597d8     WebCommonLib:ezxml.obj
 0002:000187ec       ??_C@_0BP@EFHCLHOB@markup?5outside?5of?5root?5element?$AA@ 100597ec     WebCommonLib:ezxml.obj
 0002:0001880c       ??_C@_06NDMDNLLD@?7?$AN?6?5?1?$DO?$AA@ 1005980c     WebCommonLib:ezxml.obj
 0002:00018814       ??_C@_07PEIKGMMD@?7?$AN?6?5?$DN?1?$DO?$AA@ 10059814     WebCommonLib:ezxml.obj
 0002:0001881c       ??_C@_05KMLKCFBP@?7?$AN?6?5?$DN?$AA@ 1005981c     WebCommonLib:ezxml.obj
 0002:00018824       ??_C@_0L@BOJNAMOF@missing?5?$CFc?$AA@ 10059824     WebCommonLib:ezxml.obj
 0002:00018830       ??_C@_09OBHDHGOK@missing?5?$DO?$AA@ 10059830     WebCommonLib:ezxml.obj
 0002:0001883c       ??_C@_03NGIKGHOE@?$CB?9?9?$AA@ 1005983c     WebCommonLib:ezxml.obj
 0002:00018840       ??_C@_02BAABKJLB@?9?9?$AA@ 10059840     WebCommonLib:ezxml.obj
 0002:00018844       ??_C@_0O@NEODEGIL@unclosed?5?$DM?$CB?9?9?$AA@ 10059844     WebCommonLib:ezxml.obj
 0002:00018854       ??_C@_08GMPBDPNL@?$CB?$FLCDATA?$FL?$AA@ 10059854     WebCommonLib:ezxml.obj
 0002:00018860       ??_C@_03MCHNFBAC@?$FN?$FN?$DO?$AA@ 10059860     WebCommonLib:ezxml.obj
 0002:00018864       ??_C@_0BD@BKCNIFDB@unclosed?5?$DM?$CB?$FLCDATA?$FL?$AA@ 10059864     WebCommonLib:ezxml.obj
 0002:00018878       ??_C@_08IAAAHACH@?$CBDOCTYPE?$AA@ 10059878     WebCommonLib:ezxml.obj
 0002:00018884       ??_C@_03OHBGAONO@?$FL?$FN?$DO?$AA@ 10059884     WebCommonLib:ezxml.obj
 0002:00018888       ??_C@_0BD@PGNMMKMN@unclosed?5?$DM?$CBDOCTYPE?$AA@ 10059888     WebCommonLib:ezxml.obj
 0002:0001889c       ??_C@_0M@IPLLBBLK@unclosed?5?$DM?$DP?$AA@ 1005989c     WebCommonLib:ezxml.obj
 0002:000188a8       ??_C@_0N@LOEDOFDJ@unexpected?5?$DM?$AA@ 100598a8     WebCommonLib:ezxml.obj
 0002:000188b8       ??_C@_0BC@EONPOLEO@unclosed?5tag?5?$DM?$CFs?$DO?$AA@ 100598b8     WebCommonLib:ezxml.obj
 0002:000188cc       ??_C@_0O@PCKMHJN@IsUserAnAdmin?$AA@ 100598cc     WebCommonLib:IsUserAdmin.obj
 0002:000188dc       ??_C@_1BK@GAEMIDIL@?$AAA?$AAD?$AAV?$AAA?$AAP?$AAI?$AA3?$AA2?$AA?4?$AAD?$AAL?$AAL?$AA?$AA@ 100598dc     WebCommonLib:IsUserAdmin.obj
 0002:000188f8       ??_C@_0BA@MOEFBCGC@OpenThreadToken?$AA@ 100598f8     WebCommonLib:IsUserAdmin.obj
 0002:00018908       ??_C@_0BB@EANJDCJP@OpenProcessToken?$AA@ 10059908     WebCommonLib:IsUserAdmin.obj
 0002:0001891c       ??_C@_0P@OPDGIJLP@DuplicateToken?$AA@ 1005991c     WebCommonLib:IsUserAdmin.obj
 0002:0001892c       ??_C@_0BJ@ECIKFEOL@AllocateAndInitializeSid?$AA@ 1005992c     WebCommonLib:IsUserAdmin.obj
 0002:00018948       ??_C@_0BN@FNLANPJJ@InitializeSecurityDescriptor?$AA@ 10059948     WebCommonLib:IsUserAdmin.obj
 0002:00018968       ??_C@_0O@GKCEJBAA@InitializeAcl?$AA@ 10059968     WebCommonLib:IsUserAdmin.obj
 0002:00018978       ??_C@_0BE@IPKPLIM@AddAccessAllowedAce?$AA@ 10059978     WebCommonLib:IsUserAdmin.obj
 0002:0001898c       ??_C@_0BK@DNNLOFO@SetSecurityDescriptorDacl?$AA@ 1005998c     WebCommonLib:IsUserAdmin.obj
 0002:000189a8       ??_C@_0BL@FLBKGAAA@SetSecurityDescriptorGroup?$AA@ 100599a8     WebCommonLib:IsUserAdmin.obj
 0002:000189c4       ??_C@_0BL@OJAFMLIK@SetSecurityDescriptorOwner?$AA@ 100599c4     WebCommonLib:IsUserAdmin.obj
 0002:000189e0       ??_C@_0BK@MPIPDCIO@IsValidSecurityDescriptor?$AA@ 100599e0     WebCommonLib:IsUserAdmin.obj
 0002:000189fc       ??_C@_0M@NFEPJBAB@AccessCheck?$AA@ 100599fc     WebCommonLib:IsUserAdmin.obj
 0002:00018a08       ??_C@_07JIBMLCGK@FreeSid?$AA@ 10059a08     WebCommonLib:IsUserAdmin.obj
 0002:00018a10       ??_C@_1BG@GLKFLKB@?$AAk?$AAt?$AAm?$AAw?$AA3?$AA2?$AA?4?$AAd?$AAl?$AAl?$AA?$AA@ 10059a10     WebCommonLib:Updater.obj
 0002:00018a28       ??_C@_0BC@GAOFHPNA@CreateTransaction?$AA@ 10059a28     WebCommonLib:Updater.obj
 0002:00018a3c       ??_C@_0BC@OLDFEAHM@CommitTransaction?$AA@ 10059a3c     WebCommonLib:Updater.obj
 0002:00018a50       ??_C@_1BK@MGMFAEKH@?$AAk?$AAe?$AAr?$AAn?$AAe?$AAl?$AA3?$AA2?$AA?4?$AAd?$AAl?$AAl?$AA?$AA@ 10059a50     WebCommonLib:Updater.obj
 0002:00018a6c       ??_C@_0BL@KILOLGEA@GetFullPathNameTransactedW?$AA@ 10059a6c     WebCommonLib:Updater.obj
 0002:00018a88       ??_C@_0BN@KGIPEFFF@SetFileAttributesTransactedW?$AA@ 10059a88     WebCommonLib:Updater.obj
 0002:00018aa8       ??_C@_0BJ@KAJEEPGD@FindFirstFileTransactedW?$AA@ 10059aa8     WebCommonLib:Updater.obj
 0002:00018ac4       ??_C@_0BG@DHJMHDAN@DeleteFileTransactedW?$AA@ 10059ac4     WebCommonLib:Updater.obj
 0002:00018adc       ??_C@_0BL@DOLECCBH@CreateDirectoryTransactedW?$AA@ 10059adc     WebCommonLib:Updater.obj
 0002:00018af8       ??_C@_0BL@NPHAJMON@RemoveDirectoryTransactedW?$AA@ 10059af8     WebCommonLib:Updater.obj
 0002:00018b14       ??_C@_0BE@HKBCBLNP@CopyFileTransactedW?$AA@ 10059b14     WebCommonLib:Updater.obj
 0002:00018b28       ??_C@_0BE@OPNPBNBB@MoveFileTransactedW?$AA@ 10059b28     WebCommonLib:Updater.obj
 0002:00018b3c       ??_C@_1DE@KJGGILOD@?$AAU?$AAn?$AAi?$AAt?$AAy?$AAW?$AAe?$AAb?$AAP?$AAl?$AAa?$AAy?$AAe?$AAr?$AAU?$AAp?$AAd?$AAa?$AAt?$AAe?$AAM?$AAu?$AAt?$AAe?$AAx?$AA?$AA@ 10059b3c     WebCommonLib:Updater.obj
 0002:00018b70       ??_C@_1BA@GKAOCBBO@?$AA?$CF?$AAs?$AA?4?$AA?$CF?$AA?4?$AA3?$AAd?$AA?$AA@ 10059b70     WebCommonLib:Updater.obj
 0002:00018b80       ??_C@_17LDPNGHAG@?$AAo?$AAc?$AAx?$AA?$AA@ 10059b80     WebCommonLib:Updater.obj
 0002:00018b88       ??_C@_1CA@HCBCOPKN@?$AAO?$AAC?$AAX?$AAU?$AAp?$AAd?$AAa?$AAt?$AAe?$AAF?$AAa?$AAi?$AAl?$AAe?$AAd?$AA?$AA@ 10059b88     WebCommonLib:Updater.obj
 0002:00018ba8       ??_C@_13BBDEGPLJ@?$AA?$CK?$AA?$AA@ 10059ba8     WebCommonLib:Updater.obj
 0002:00018bac       ??_C@_11LOCGONAA@?$AA?$AA@ 10059bac     WebCommonLib:Registry.obj
 0002:00018bb0       __real@408f400000000000    10059bb0      CIL library: CIL module
 0002:00018bb8       __real@4000000000000000    10059bb8      CIL library: CIL module
 0002:00018bc0       __real@0000000000000000    10059bc0      CIL library: CIL module
 0002:00018bc8       __real@bf800000            10059bc8      CIL library: CIL module
 0002:00018bd0       __real@3ff0000000000000    10059bd0      CIL library: CIL module
 0002:00018bd8       __real@4f800000            10059bd8      CIL library: CIL module
 0002:00018be0       __real@3fe0000000000000    10059be0      CIL library: CIL module
 0002:00018be8       __real@3fdcccccc0000000    10059be8      CIL library: CIL module
 0002:00018bf0       __real@41cdcd6500000000    10059bf0      CIL library: CIL module
 0002:00018bf8       __real@3f50624de0000000    10059bf8      CIL library: CIL module
 0002:00018c00       __load_config_used         10059c00     LIBCMT:loadcfg.obj
 0002:00018ca4       ??_R4logic_error@std@@6B@  10059ca4     libcpmt:xthrow.obj
 0002:00018cb8       ??_R3logic_error@std@@8    10059cb8     libcpmt:xthrow.obj
 0002:00018cc8       ??_R2logic_error@std@@8    10059cc8     libcpmt:xthrow.obj
 0002:00018cd4       ??_R1A@?0A@EA@logic_error@std@@8 10059cd4     libcpmt:xthrow.obj
 0002:00018cf0       ??_R1A@?0A@EA@exception@std@@8 10059cf0     libcpmt:xthrow.obj
 0002:00018d0c       ??_R3exception@std@@8      10059d0c     libcpmt:xthrow.obj
 0002:00018d1c       ??_R2exception@std@@8      10059d1c     libcpmt:xthrow.obj
 0002:00018d24       ??_R4length_error@std@@6B@ 10059d24     libcpmt:xthrow.obj
 0002:00018d38       ??_R3length_error@std@@8   10059d38     libcpmt:xthrow.obj
 0002:00018d48       ??_R2length_error@std@@8   10059d48     libcpmt:xthrow.obj
 0002:00018d58       ??_R1A@?0A@EA@length_error@std@@8 10059d58     libcpmt:xthrow.obj
 0002:00018d74       ??_R4out_of_range@std@@6B@ 10059d74     libcpmt:xthrow.obj
 0002:00018d88       ??_R3out_of_range@std@@8   10059d88     libcpmt:xthrow.obj
 0002:00018d98       ??_R2out_of_range@std@@8   10059d98     libcpmt:xthrow.obj
 0002:00018da8       ??_R1A@?0A@EA@out_of_range@std@@8 10059da8     libcpmt:xthrow.obj
 0002:00018dc4       ??_R4exception@std@@6B@    10059dc4     LIBCMT:stdexcpt.obj
 0002:00018dd8       ??_R4type_info@@6B@        10059dd8     LIBCMT:typinfo.obj
 0002:00018dec       ??_R3type_info@@8          10059dec     LIBCMT:typinfo.obj
 0002:00018dfc       ??_R2type_info@@8          10059dfc     LIBCMT:typinfo.obj
 0002:00018e04       ??_R1A@?0A@EA@type_info@@8 10059e04     LIBCMT:typinfo.obj
 0002:00018e20       ??_R4bad_alloc@std@@6B@    10059e20     LIBCMT:new.obj
 0002:00018e34       ??_R3bad_alloc@std@@8      10059e34     LIBCMT:new.obj
 0002:00018e44       ??_R2bad_alloc@std@@8      10059e44     LIBCMT:new.obj
 0002:00018e50       ??_R1A@?0A@EA@bad_alloc@std@@8 10059e50     LIBCMT:new.obj
 0002:00018e6c       ??_R4bad_exception@std@@6B@ 10059e6c     LIBCMT:frame.obj
 0002:00018e80       ??_R3bad_exception@std@@8  10059e80     LIBCMT:frame.obj
 0002:00018e90       ??_R2bad_exception@std@@8  10059e90     LIBCMT:frame.obj
 0002:00018e9c       ??_R1A@?0A@EA@bad_exception@std@@8 10059e9c     LIBCMT:frame.obj
 0002:00018ec0       ___safe_se_handler_table   10059ec0     <linker-defined>
 0002:00018f5c       ___rtc_iaa                 10059f5c     LIBCMT:_initsect_.obj
 0002:00018f60       ___rtc_izz                 10059f60     LIBCMT:_initsect_.obj
 0002:00018f64       ___rtc_taa                 10059f64     LIBCMT:_initsect_.obj
 0002:00018f68       ___rtc_tzz                 10059f68     LIBCMT:_initsect_.obj
 0002:00018f70       __CT??_R0?AVlogic_error@std@@@8??0logic_error@std@@QAE@ABV01@@Z12 10059f70     libcpmt:xthrow.obj
 0002:00018f8c       __TI3?AVlength_error@std@@ 10059f8c     libcpmt:xthrow.obj
 0002:00018f9c       __CTA3?AVlength_error@std@@ 10059f9c     libcpmt:xthrow.obj
 0002:00018fac       __CT??_R0?AVlength_error@std@@@8??0length_error@std@@QAE@ABV01@@Z12 10059fac     libcpmt:xthrow.obj
 0002:00018fc8       __TI3?AVout_of_range@std@@ 10059fc8     libcpmt:xthrow.obj
 0002:00018fd8       __CTA3?AVout_of_range@std@@ 10059fd8     libcpmt:xthrow.obj
 0002:00018fe8       __CT??_R0?AVout_of_range@std@@@8??0out_of_range@std@@QAE@ABV01@@Z12 10059fe8     libcpmt:xthrow.obj
 0002:000196a4       __TI2?AVbad_exception@std@@ 1005a6a4     LIBCMT:frame.obj
 0002:000196b4       __CTA2?AVbad_exception@std@@ 1005a6b4     LIBCMT:frame.obj
 0002:000196c0       __CT??_R0?AVbad_exception@std@@@8??0bad_exception@std@@QAE@ABV01@@Z12 1005a6c0     LIBCMT:frame.obj
 0002:0001979c       __CT??_R0?AVexception@std@@@8??0exception@std@@QAE@ABV01@@Z12 1005a79c     DownloadManager.obj
 0002:000197b8       __CT??_R0?AVbad_alloc@std@@@8??0bad_alloc@std@@QAE@ABV01@@Z12 1005a7b8     DownloadManager.obj
 0002:000197d4       __CTA2?AVbad_alloc@std@@   1005a7d4     DownloadManager.obj
 0002:000197e0       __TI2?AVbad_alloc@std@@    1005a7e0     DownloadManager.obj
 0002:0001a300       __IMPORT_DESCRIPTOR_KERNEL32 1005b300     kernel32:KERNEL32.dll
 0002:0001a314       __IMPORT_DESCRIPTOR_USER32 1005b314     user32:USER32.dll
 0002:0001a328       __IMPORT_DESCRIPTOR_GDI32  1005b328     gdi32:GDI32.dll
 0002:0001a33c       __IMPORT_DESCRIPTOR_SHLWAPI 1005b33c     WebCommonLib:SHLWAPI.dll
 0002:0001a350       __IMPORT_DESCRIPTOR_ADVAPI32 1005b350     advapi32:ADVAPI32.dll
 0002:0001a364       __IMPORT_DESCRIPTOR_WINMM  1005b364     winmm:WINMM.dll
 0002:0001a378       __IMPORT_DESCRIPTOR_SHELL32 1005b378     shell32:SHELL32.dll
 0002:0001a38c       __IMPORT_DESCRIPTOR_ole32  1005b38c     ole32:ole32.dll
 0002:0001a3a0       __IMPORT_DESCRIPTOR_MSIMG32 1005b3a0     MSImg32:MSIMG32.dll
 0002:0001a3b4       __IMPORT_DESCRIPTOR_VERSION 1005b3b4     version:VERSION.dll
 0002:0001a3c8       __NULL_IMPORT_DESCRIPTOR   1005b3c8     kernel32:KERNEL32.dll
 0003:00000000       ??_R0?AVlogic_error@std@@@8 1005d000     libcpmt:xthrow.obj
 0003:00000020       ??_R0?AVlength_error@std@@@8 1005d020     libcpmt:xthrow.obj
 0003:00000040       ??_R0?AVout_of_range@std@@@8 1005d040     libcpmt:xthrow.obj
 0003:00000060       ??_R0?AVtype_info@@@8      1005d060     LIBCMT:typinfo.obj
 0003:00000080       ___abort_behavior          1005d080     LIBCMT:abort.obj
 0003:00000200       ___initialmbcinfo          1005d200     LIBCMT:mbctype.obj
 0003:00000420       __mbctype                  1005d420     LIBCMT:mbctype.obj
 0003:00000528       __mbcasemap                1005d528     LIBCMT:mbctype.obj
 0003:00000628       ___ptmbcinfo               1005d628     LIBCMT:mbctype.obj
 0003:00000720       ___globallocalestatus      1005d720     LIBCMT:glstatus.obj
 0003:00000724       ___clocalestr              1005d724     LIBCMT:nlsdata2.obj
 0003:00000728       ___lc_time_c               1005d728     LIBCMT:nlsdata2.obj
 0003:00000890       ___initiallocinfo          1005d890     LIBCMT:nlsdata2.obj
 0003:00000968       ___ptlocinfo               1005d968     LIBCMT:nlsdata2.obj
 0003:0000096c       ___initiallocalestructinfo 1005d96c     LIBCMT:nlsdata2.obj
 0003:00000974       ___flsindex                1005d974     LIBCMT:tidtable.obj
 0003:00000978       ___getvalueindex           1005d978     LIBCMT:tidtable.obj
 0003:00000990       __iob                      1005d990     LIBCMT:_file.obj
 0003:00000c10       ___nullstring              1005dc10     LIBCMT:output.obj
 0003:00000c14       ___wnullstring             1005dc14     LIBCMT:output.obj
 0003:00000c18       ___security_cookie         1005dc18     LIBCMT:gs_cookie.obj
 0003:00000c1c       ___security_cookie_complement 1005dc1c     LIBCMT:gs_cookie.obj
 0003:00000c20       ___badioinfo               1005dc20     LIBCMT:ioinit.obj
 0003:00000d98       __timezone                 1005dd98     LIBCMT:timeset.obj
 0003:00000d9c       __daylight                 1005dd9c     LIBCMT:timeset.obj
 0003:00000da0       __dstbias                  1005dda0     LIBCMT:timeset.obj
 0003:00000e28       __tzname                   1005de28     LIBCMT:timeset.obj
 0003:00000e30       __lookuptrailbytes         1005de30     LIBCMT:read.obj
 0003:00000f30       __NLG_Destination          1005df30     LIBCMT:exsup.obj
 0003:00000f40       ___lconv_static_decimal    1005df40     LIBCMT:lconv.obj
 0003:00000f44       ___lconv_static_W_decimal  1005df44     LIBCMT:lconv.obj
 0003:00000f48       ___lconv_c                 1005df48     LIBCMT:lconv.obj
 0003:00000f98       ___lconv                   1005df98     LIBCMT:lconv.obj
 0003:00000f9c       __pctype                   1005df9c     LIBCMT:ctype.obj
 0003:00000fa0       __pwctype                  1005dfa0     LIBCMT:ctype.obj
 0003:00000fa4       ___mb_cur_max              1005dfa4     LIBCMT:nlsdata1.obj
 0003:00000fa8       ___decimal_point           1005dfa8     LIBCMT:nlsdata1.obj
 0003:00000fac       ___decimal_point_length    1005dfac     LIBCMT:nlsdata1.obj
 0003:00000fb0       __cfltcvt_tab              1005dfb0     LIBCMT:cmiscdat.obj
 0003:00000fe0       __lpdays                   1005dfe0     LIBCMT:days.obj
 0003:00001014       __days                     1005e014     LIBCMT:days.obj
 0003:00001048       ??_R0?AVbad_exception@std@@@8 1005e048     LIBCMT:frame.obj
 0003:00001070       __confh                    1005e070     LIBCMT:initcon.obj
 0003:0000110c       __fltused                  1005e10c     LIBCMT:_fpinit_.obj
 0003:00001110       __ldused                   1005e110     LIBCMT:_fpinit_.obj
 0003:00001120       __half                     1005e120     LIBCMT:_pow_.obj
 0003:00001138       __d_inf                    1005e138     LIBCMT:_util_.obj
 0003:00001140       __d_ind                    1005e140     LIBCMT:_util_.obj
 0003:00001148       __d_max                    1005e148     LIBCMT:_util_.obj
 0003:00001150       __d_min                    1005e150     LIBCMT:_util_.obj
 0003:00001158       __d_mzero                  1005e158     LIBCMT:_util_.obj
 0003:00001270       __matherr_flag             1005e270     LIBCMT:_matherr_.obj
 0003:000012a8       __pow10pos                 1005e2a8     LIBCMT:_constpow_.obj
 0003:00001408       __pow10neg                 1005e408     LIBCMT:_constpow_.obj
 0003:00001564       ??_R0?AVexception@std@@@8  1005e564     DownloadManager.obj
 0003:000015ac       ?kRegistryPath@@3PBDB      1005e5ac     WebCommonLib:GlobalPreferences.obj
 0003:000015b0       ?kGlobalRevisionFile@@3PBDB 1005e5b0     WebCommonLib:RevisionsQuery.obj
 0003:000015b4       ?gAllowSettingAutodateURL@@3_NA 1005e5b4     WebCommonLib:RevisionsQuery.obj
 0003:000015b8       ?kImageTags@progress@@3PAPBDA 1005e5b8     WebCommonLib:ProgressDisplay.obj
 0003:000015c8       ?kColorTags@progress@@3PAPBDA 1005e5c8     WebCommonLib:ProgressDisplay.obj
 0003:000015d4       ?kBundleIDToDownloadLookup@@3PAPBDA 1005e5d4     WebCommonLib:PluginManager.obj
 0003:000015e0       ?kApplyUpdateMutexName@@3PBDB 1005e5e0     WebCommonLib:PluginManager.obj
 0003:00001628       ?kProgressImageResourceIDs@@3PAHA 1005e628     UnityWebPlayerPlugin.obj
 0003:0000163c       ?kWhitespaceCharacters@@3PBDB 1005e63c     DownloadManager.obj
 0003:00001640       ??_R0?AVbad_alloc@std@@@8  1005e640     DownloadManager.obj
 0003:00001660       ?nothrow@std@@3Unothrow_t@1@B 1005e660     libcpmt:nothrow.obj
 0003:0000167c       __aenvptr                  1005e67c     LIBCMT:dllcrt0.obj
 0003:00001680       __wenvptr                  1005e680     LIBCMT:dllcrt0.obj
 0003:00001684       ___error_mode              1005e684     LIBCMT:dllcrt0.obj
 0003:00001688       ___app_type                1005e688     LIBCMT:dllcrt0.obj
 0003:00001690       ___mbulinfo                1005e690     LIBCMT:mbctype.obj
 0003:0000169c       ___mbcodepage              1005e69c     LIBCMT:mbctype.obj
 0003:000016a0       ___ismbcodepage            1005e6a0     LIBCMT:mbctype.obj
 0003:000016a4       ___mblcid                  1005e6a4     LIBCMT:mbctype.obj
 0003:000016a8       _gpFlsAlloc                1005e6a8     LIBCMT:tidtable.obj
 0003:000016ac       _gpFlsGetValue             1005e6ac     LIBCMT:tidtable.obj
 0003:000016b0       _gpFlsSetValue             1005e6b0     LIBCMT:tidtable.obj
 0003:000016b4       _gpFlsFree                 1005e6b4     LIBCMT:tidtable.obj
 0003:000016b8       ___pInvalidArgHandler      1005e6b8     LIBCMT:invarg.obj
 0003:000016bc       ___locale_changed          1005e6bc     LIBCMT:setlocal.obj
 0003:000016c0       __maxwait                  1005e6c0     LIBCMT:crtheap.obj
 0003:000016c4       __umaskval                 1005e6c4     LIBCMT:crt0dat.obj
 0003:000016c8       ___argc                    1005e6c8     LIBCMT:crt0dat.obj
 0003:000016cc       ___argv                    1005e6cc     LIBCMT:crt0dat.obj
 0003:000016d0       ___wargv                   1005e6d0     LIBCMT:crt0dat.obj
 0003:000016d4       __environ                  1005e6d4     LIBCMT:crt0dat.obj
 0003:000016d8       ___initenv                 1005e6d8     LIBCMT:crt0dat.obj
 0003:000016dc       __wenviron                 1005e6dc     LIBCMT:crt0dat.obj
 0003:000016e0       ___winitenv                1005e6e0     LIBCMT:crt0dat.obj
 0003:000016e4       __pgmptr                   1005e6e4     LIBCMT:crt0dat.obj
 0003:000016e8       __wpgmptr                  1005e6e8     LIBCMT:crt0dat.obj
 0003:000016ec       __exitflag                 1005e6ec     LIBCMT:crt0dat.obj
 0003:000016f0       __C_Termination_Done       1005e6f0     LIBCMT:crt0dat.obj
 0003:000016f4       __C_Exit_Done              1005e6f4     LIBCMT:crt0dat.obj
 0003:00001700       ?_pnhHeap@@3P6AHI@ZA       1005e700     LIBCMT:handler.obj
 0003:00001d30       ___pPurecall               1005ed30     LIBCMT:inithelp.obj
 0003:00001d34       __cflush                   1005ed34     LIBCMT:_file.obj
 0003:00001d38       __stdbuf                   1005ed38     LIBCMT:_sftbuf.obj
 0003:00001e48       __crtheap                  1005ee48     LIBCMT:heapinit.obj
 0003:00001e60       __newmode                  1005ee60     LIBCMT:_newmode.obj
 0003:00002070       ___lconv_static_null       1005f070     LIBCMT:lconv.obj
 0003:00002074       ___lconv_static_W_null     1005f074     LIBCMT:lconv.obj
 0003:00002078       ?__pInconsistency@@3P6AXXZA 1005f078     LIBCMT:hooks.obj
 0003:00002094       ?pArgList@UnDecorator@@0PAVReplicator@@A 1005f094     LIBCMT:undname.obj
 0003:00002098       ?pZNameList@UnDecorator@@0PAVReplicator@@A 1005f098     LIBCMT:undname.obj
 0003:0000209c       ?pTemplateArgList@UnDecorator@@0PAVReplicator@@A 1005f09c     LIBCMT:undname.obj
 0003:000020a0       ?gName@UnDecorator@@0PBDB  1005f0a0     LIBCMT:undname.obj
 0003:000020a4       ?name@UnDecorator@@0PBDB   1005f0a4     LIBCMT:undname.obj
 0003:000020a8       ?outputString@UnDecorator@@0PADA 1005f0a8     LIBCMT:undname.obj
 0003:000020ac       ?maxStringLength@UnDecorator@@0HA 1005f0ac     LIBCMT:undname.obj
 0003:000020b0       ?disableFlags@UnDecorator@@0KA 1005f0b0     LIBCMT:undname.obj
 0003:000020b4       ?m_pGetParameter@UnDecorator@@0P6APADJ@ZA 1005f0b4     LIBCMT:undname.obj
 0003:000020b8       ?fExplicitTemplateParams@UnDecorator@@0_NA 1005f0b8     LIBCMT:undname.obj
 0003:000020b9       ?fGetTemplateArgumentList@UnDecorator@@0_NA 1005f0b9     LIBCMT:undname.obj
 0003:000020d0       __commode                  1005f0d0     LIBCMT:ncommode.obj
 0003:000023fc       __fmode                    1005f3fc     LIBCMT:txtmode.obj
 0003:00004410       ?s_DefaultExecutionEnv@CrashHandler@@0AAVExecutionEnvironment@unity@@A 10061410     CrashHandlerLib:CrashHandler.obj
 0003:00004414       ?s_DefaultCrashReporter@CrashHandler@@0AAVCrashReporter@unity@@A 10061414     CrashHandlerLib:CrashHandler.obj
 0003:00004418       ?s_DefaultFileTool@CrashHandler@@0V?$auto_ptr@VWindowsFileTool@unity@@@std@@A 10061418     CrashHandlerLib:CrashHandler.obj
 0003:00004420       ___fastflag                10061420     LIBCMT:_fpinit_.obj
 0003:000044b0       __outputformat             100614b0     LIBCMT:outputformat.obj
 0003:000044b8       ___@@_PchSym_@00@UyfrowhozevUfmrgbUyfrowUzigruzxghUlyqUfmrgbdvykozbvimkUdrmDCUivovzhvUhgwzucOlyq@ 100614b8     stdafx.obj
 0003:000044c8       ?NPNFuncs@@3U_NPNetscapeFuncs@@A 100614c8     np_entry.obj
 0003:000045b4       ?dummy_@ReentrancyChecker@@0_NA 100615b4     WebCommonLib:WebPluginUtility.obj
 0003:000045c4       ?s_QueryUnbiasedInterruptTime@?A0x6ec35eb3@@3P6GHPA_K@ZA 100615c4     WebCommonLib:WinWebUtils.obj
 0003:000045c8       ?s_Frequency@?A0x6ec35eb3@@3_JA 100615c8     WebCommonLib:WinWebUtils.obj
 0003:000045d6       ?m_Initialized@CPUInfo@@0_NA 100615d6     WebCommonLib:CPUInfo.obj
 0003:000045d7       ?m_IsSSESupported@CPUInfo@@0_NA 100615d7     WebCommonLib:CPUInfo.obj
 0003:000045dc       ?m_SingleInstance@PluginManager@@0PAV1@A 100615dc     WebCommonLib:PluginManager.obj
 0003:000045e0       ?gLastRevsionQueryDuration@@3MA 100615e0     WebCommonLib:RevisionsQuery.obj
 0003:000045e4       _EZXML_NIL                 100615e4     WebCommonLib:ezxml.obj
 0003:000045e8       ?m_IsSSE2Supported@CPUInfo@@0_NA 100615e8     WebCommonLib:CPUInfo.obj
 0003:000045e9       ?m_IsSSE3Supported@CPUInfo@@0_NA 100615e9     WebCommonLib:CPUInfo.obj
 0003:000045ea       ?m_IsSupplementalSSE3Supported@CPUInfo@@0_NA 100615ea     WebCommonLib:CPUInfo.obj
 0003:000045eb       ?m_IsSSE41Supported@CPUInfo@@0_NA 100615eb     WebCommonLib:CPUInfo.obj
 0003:000045ec       ?m_IsSSE42Supported@CPUInfo@@0_NA 100615ec     WebCommonLib:CPUInfo.obj
 0003:000045ed       ?m_IsAVXSupported@CPUInfo@@0_NA 100615ed     WebCommonLib:CPUInfo.obj
 0003:000045ee       ?m_IsAVX2Supported@CPUInfo@@0_NA 100615ee     WebCommonLib:CPUInfo.obj
 0003:000045ef       ?m_IsAVX512Supported@CPUInfo@@0_NA 100615ef     WebCommonLib:CPUInfo.obj
 0003:000045f0       ?m_IsFP16CSupported@CPUInfo@@0_NA 100615f0     WebCommonLib:CPUInfo.obj
 0003:000045f1       ?m_IsFMASupported@CPUInfo@@0_NA 100615f1     WebCommonLib:CPUInfo.obj
 0003:0000464c       ?ms_WindowClass@ContextMenu@@0VContextMenuWindowClass@@B 1006164c     ContextMenu.obj
 0003:00004650       ?globals@@3UPluginGlobals@@A 10061650     UnityWebPlayerPlugin.obj
 0003:000046a0       ?m_SingletonMutex@PluginManager@@0VMutex@@A 100616a0     WebCommonLib:PluginManager.obj
 0003:000046b8       ?s_GetTimeUS@?A0x6ec35eb3@@3P6A_KXZA 100616b8     WebCommonLib:WinWebUtils.obj
 0003:000046bc       ?s_Kernel32@?A0x6ec35eb3@@3V?$Handle@PAUHINSTANCE__@@$1?FreeLibrary@@YGHPAU1@@Z$0A@@win@@A 100616bc     WebCommonLib:WinWebUtils.obj
 0003:000046c0       ?g_cpuInfo@@3VCPUInfo@@A   100616c0     WebCommonLib:CPUInfo.obj
 0003:000046c4       ___use_sse2_mathfcns       100616c4     <common>
 0003:000046c8       __pmatherr                 100616c8     <common>
 0003:000046cc       __debugger_hook_dummy      100616cc     <common>
 0003:000046d0       __nhandle                  100616d0     <common>
 0003:000046e0       ___pioinfo                 100616e0     <common>
 0003:000047e0       ___piob                    100617e0     <common>
 0003:00004800       __bufin                    10061800     <common>
 0003:00005800       __nstream                  10062800     <common>
 0003:00005804       ___env_initialized         10062804     <common>
 0003:00005808       ___onexitend               10062808     <common>
 0003:0000580c       ___onexitbegin             1006280c     <common>
 0003:00005810       ___mbctype_initialized     10062810     <common>
 0003:00005814       ___dyn_tls_init_callback   10062814     <common>
 0003:00005818       ___sse2_available          10062818     <common>
 0003:0000581c       __acmdln                   1006281c     <common>

 entry point at        0001:0001a2c1

 Static symbols

 0001:00000144       ?FindDownloadByID@@YAPAVDownloaderNetscape@@I@Z 10001144 f    CIL library: CIL module
 0001:00001622       __catch$??0?$list@VPortRange@@V?$allocator@VPortRange@@@std@@@std@@QAE@ABV01@@Z$0 10002622 f i  CIL library: CIL module
 0001:0000234d       __catch$?_Buynode@?$_List_val@VCrossdomainPolicyEntry@@V?$allocator@VCrossdomainPolicyEntry@@@std@@@std@@QAEPAU_Node@?$_List_nod@VCrossdomainPolicyEntry@@V?$allocator@VCrossdomainPolicyEntry@@@std@@@2@PAU342@0ABVCrossdomainPolicyEntry@@@Z$0 1000334d f i  CIL library: CIL module
 0001:000028b6       __catch$?_Buynode@?$_List_val@PAVDownloaderNetscape@@V?$allocator@PAVDownloaderNetscape@@@std@@@std@@QAEPAU_Node@?$_List_nod@PAVDownloaderNetscape@@V?$allocator@PAVDownloaderNetscape@@@std@@@2@PAU342@0ABQAVDownloaderNetscape@@@Z$0 100038b6 f i  CIL library: CIL module
 0001:00002932       __catch$?_Copy@?$basic_string@DU?$char_traits@D@std@@V?$allocator@D@2@@std@@QAEXII@Z$0 10003932 f i  CIL library: CIL module
 0001:000029b2       __catch$?_Copy@?$basic_string@DU?$char_traits@D@std@@V?$allocator@D@2@@std@@QAEXII@Z$1 100039b2 f i  CIL library: CIL module
 0001:00003508       __catch$??$_Buynode@U?$pair@IPAVDownloaderNetscape@@@std@@@?$_Tree_val@V?$_Tmap_traits@IPAVDownloaderNetscape@@U?$less@I@std@@V?$allocator@U?$pair@$$CBIPAVDownloaderNetscape@@@std@@@3@$0A@@std@@@std@@QAEPAU_Node@?$_Tree_nod@V?$_Tmap_traits@IPAVDownloaderNetscape@@U?$less@I@std@@V?$allocator@U?$pair@$$CBIPAVDownloaderNetscape@@@std@@@3@$0A@@std@@@1@$$QAU?$pair@IPAVDownloaderNetscape@@@1@@Z$0 10004508 f i  CIL library: CIL module
 0001:0000357e       __catch$??$_Buynode@U?$pair@PAVDownloaderNetscape@@PAU_NPStream@@@std@@@?$_Tree_val@V?$_Tmap_traits@PAVDownload@@PAU_NPStream@@U?$less@PAVDownload@@@std@@V?$allocator@U?$pair@QAVDownload@@PAU_NPStream@@@std@@@4@$0A@@std@@@std@@QAEPAU_Node@?$_Tree_nod@V?$_Tmap_traits@PAVDownload@@PAU_NPStream@@U?$less@PAVDownload@@@std@@V?$allocator@U?$pair@QAVDownload@@PAU_NPStream@@@std@@@4@$0A@@std@@@1@$$QAU?$pair@PAVDownloaderNetscape@@PAU_NPStream@@@1@@Z$0 1000457e f i  CIL library: CIL module
 0001:000035f0       __catch$??$_Buynode@U?$pair@$$CBV?$basic_string@DU?$char_traits@D@std@@V?$allocator@D@2@@std@@V?$list@PAVDownloaderNetscape@@V?$allocator@PAVDownloaderNetscape@@@std@@@2@@std@@@?$_Tree_val@V?$_Tmap_traits@V?$basic_string@DU?$char_traits@D@std@@V?$allocator@D@2@@std@@V?$list@PAVDownloaderNetscape@@V?$allocator@PAVDownloaderNetscape@@@std@@@2@U?$less@V?$basic_string@DU?$char_traits@D@std@@V?$allocator@D@2@@std@@@2@V?$allocator@U?$pair@$$CBV?$basic_string@DU?$char_traits@D@std@@V?$allocator@D@2@@std@@V?$list@PAVDownloaderNetscape@@V?$allocator@PAVDownloaderNetscape@@@std@@@2@@std@@@2@$0A@@std@@@std@@QAEPAU_Node@?$_Tree_nod@V?$_Tmap_traits@V?$basic_string@DU?$char_traits@D@std@@V?$allocator@D@2@@std@@V?$list@PAVDownloaderNetscape@@V?$allocator@PAVDownloaderNetscape@@@std@@@2@U?$less@V?$basic_string@DU?$char_traits@D@std@@V?$allocator@D@2@@std@@@2@V?$allocator@U?$pair@$$CBV?$basic_string@DU?$char_traits@D@std@@V?$allocator@D@2@@std@@V?$list@PAVDownloaderNetscape@@V?$allocator@PAVDownloaderNetscape@@@std@@@2@@std@@@2@$0A@@std@@@1@$$QAU?$pair@$$CBV?$basic_string@DU?$char_traits@D@std@@V?$allocator@D@2@@std@@V?$list@PAVDownloaderNetscape@@V?$allocator@PAVDownloaderNetscape@@@std@@@2@@1@@Z$0 100045f0 f i  CIL library: CIL module
 0001:00003667       __catch$??$_Buynode@U?$pair@$$CBV?$basic_string@DU?$char_traits@D@std@@V?$allocator@D@2@@std@@PAVCrossdomainPolicy@@@std@@@?$_Tree_val@V?$_Tmap_traits@V?$basic_string@DU?$char_traits@D@std@@V?$allocator@D@2@@std@@PAVCrossdomainPolicy@@U?$less@V?$basic_string@DU?$char_traits@D@std@@V?$allocator@D@2@@std@@@2@V?$allocator@U?$pair@$$CBV?$basic_string@DU?$char_traits@D@std@@V?$allocator@D@2@@std@@PAVCrossdomainPolicy@@@std@@@2@$0A@@std@@@std@@QAEPAU_Node@?$_Tree_nod@V?$_Tmap_traits@V?$basic_string@DU?$char_traits@D@std@@V?$allocator@D@2@@std@@PAVCrossdomainPolicy@@U?$less@V?$basic_string@DU?$char_traits@D@std@@V?$allocator@D@2@@std@@@2@V?$allocator@U?$pair@$$CBV?$basic_string@DU?$char_traits@D@std@@V?$allocator@D@2@@std@@PAVCrossdomainPolicy@@@std@@@2@$0A@@std@@@1@$$QAU?$pair@$$CBV?$basic_string@DU?$char_traits@D@std@@V?$allocator@D@2@@std@@PAVCrossdomainPolicy@@@1@@Z$0 10004667 f i  CIL library: CIL module
 0001:000036f2       __catch$??$_Insert@V?$_List_const_iterator@V?$_List_val@VPortRange@@V?$allocator@VPortRange@@@std@@@std@@@std@@@?$list@VPortRange@@V?$allocator@VPortRange@@@std@@@std@@QAEXV?$_List_const_iterator@V?$_List_val@VPortRange@@V?$allocator@VPortRange@@@std@@@std@@@1@00Uforward_iterator_tag@1@@Z$0 100046f2 f i  CIL library: CIL module
 0001:00003786       __catch$??$_Buynode@VPortRange@@@?$_List_val@VPortRange@@V?$allocator@VPortRange@@@std@@@std@@QAEPAU_Node@?$_List_nod@VPortRange@@V?$allocator@VPortRange@@@std@@@1@PAU231@0$$QAVPortRange@@@Z$0 10004786 f i  CIL library: CIL module
 0001:00003786       __catch$?_Buynode@?$_List_val@VPortRange@@V?$allocator@VPortRange@@@std@@@std@@QAEPAU_Node@?$_List_nod@VPortRange@@V?$allocator@VPortRange@@@std@@@2@PAU342@0ABVPortRange@@@Z$0 10004786 f i  CIL library: CIL module
 0001:000037f1       __catch$??0?$list@PAVDownloaderNetscape@@V?$allocator@PAVDownloaderNetscape@@@std@@@std@@QAE@ABV01@@Z$0 100047f1 f i  CIL library: CIL module
 0001:00003852       __catch$??$_Insert@V?$_List_const_iterator@V?$_List_val@PAVDownloaderNetscape@@V?$allocator@PAVDownloaderNetscape@@@std@@@std@@@std@@@?$list@PAVDownloaderNetscape@@V?$allocator@PAVDownloaderNetscape@@@std@@@std@@QAEXV?$_List_const_iterator@V?$_List_val@PAVDownloaderNetscape@@V?$allocator@PAVDownloaderNetscape@@@std@@@std@@@1@00Uforward_iterator_tag@1@@Z$0 10004852 f i  CIL library: CIL module
 0001:00004675       __catch$?reserve@?$vector@UItem@ContextSubmenu@@V?$allocator@UItem@ContextSubmenu@@@std@@@std@@QAEXI@Z$0 10005675 f i  CIL library: CIL module
 0001:000049e0       __catch$?_Copy@?$basic_string@_WU?$char_traits@_W@std@@V?$allocator@_W@2@@std@@QAEXII@Z$0 100059e0 f i  CIL library: CIL module
 0001:00004a65       __catch$?_Copy@?$basic_string@_WU?$char_traits@_W@std@@V?$allocator@_W@2@@std@@QAEXII@Z$1 10005a65 f i  CIL library: CIL module
 0001:00004c34       __catch$??$_Uninit_move@PAUItem@ContextSubmenu@@PAU12@V?$allocator@UItem@ContextSubmenu@@@std@@U12@@std@@YAPAUItem@ContextSubmenu@@PAU12@00AAV?$allocator@UItem@ContextSubmenu@@@0@0U_Nonscalar_ptr_iterator_tag@0@@Z$0 10005c34 f i  CIL library: CIL module
 0001:00006549       __catch$??0?$_Tree@V?$_Tset_traits@UShortChannelInfo@RevisionsQuery@@U?$less@UShortChannelInfo@RevisionsQuery@@@std@@V?$allocator@UShortChannelInfo@RevisionsQuery@@@4@$0A@@std@@@std@@QAE@ABV01@@Z$0 10007549 f i  CIL library: CIL module
 0001:0000662d       __catch$?_Copy@?$_Tree@V?$_Tset_traits@UShortChannelInfo@RevisionsQuery@@U?$less@UShortChannelInfo@RevisionsQuery@@@std@@V?$allocator@UShortChannelInfo@RevisionsQuery@@@4@$0A@@std@@@std@@IAEPAU_Node@?$_Tree_nod@V?$_Tset_traits@UShortChannelInfo@RevisionsQuery@@U?$less@UShortChannelInfo@RevisionsQuery@@@std@@V?$allocator@UShortChannelInfo@RevisionsQuery@@@4@$0A@@std@@@2@PAU342@0@Z$0 1000762d f i  CIL library: CIL module
 0001:00006895       __catch$??$_Buynode@AAUShortChannelInfo@RevisionsQuery@@@?$_Tree_val@V?$_Tset_traits@UShortChannelInfo@RevisionsQuery@@U?$less@UShortChannelInfo@RevisionsQuery@@@std@@V?$allocator@UShortChannelInfo@RevisionsQuery@@@4@$0A@@std@@@std@@QAEPAU_Node@?$_Tree_nod@V?$_Tset_traits@UShortChannelInfo@RevisionsQuery@@U?$less@UShortChannelInfo@RevisionsQuery@@@std@@V?$allocator@UShortChannelInfo@RevisionsQuery@@@4@$0A@@std@@@1@AAUShortChannelInfo@RevisionsQuery@@@Z$0 10007895 f i  CIL library: CIL module
 0001:00006895       __catch$??$_Buynode@UShortChannelInfo@RevisionsQuery@@@?$_Tree_val@V?$_Tset_traits@UShortChannelInfo@RevisionsQuery@@U?$less@UShortChannelInfo@RevisionsQuery@@@std@@V?$allocator@UShortChannelInfo@RevisionsQuery@@@4@$0A@@std@@@std@@QAEPAU_Node@?$_Tree_nod@V?$_Tset_traits@UShortChannelInfo@RevisionsQuery@@U?$less@UShortChannelInfo@RevisionsQuery@@@std@@V?$allocator@UShortChannelInfo@RevisionsQuery@@@4@$0A@@std@@@1@$$QAUShortChannelInfo@RevisionsQuery@@@Z$0 10007895 f i  CIL library: CIL module
 0001:00006ad9       ?fillPluginFunctionTable@@YAFPAU_NPPluginFuncs@@@Z 10007ad9 f    CIL library: CIL module
 0001:000074a5       ?ConvertVariant@@YA?AUVariantValue@@ABU_NPVariant@@AAVLogger@@PAU_NPP@@H@Z 100084a5 f    CIL library: CIL module
 0001:00008007       __catch$?reserve@?$vector@UVariantValue@@V?$allocator@UVariantValue@@@std@@@std@@QAEXI@Z$0 10009007 f i  CIL library: CIL module
 0001:000080dd       __catch$??$_Uninit_move@PAUVariantValue@@PAU1@V?$allocator@UVariantValue@@@std@@U1@@std@@YAPAUVariantValue@@PAU1@00AAV?$allocator@UVariantValue@@@0@0U_Nonscalar_ptr_iterator_tag@0@@Z$0 100090dd f i  CIL library: CIL module
 0001:00008379       ?CheckMembership@@YAHW4MembershipType@@@Z 10009379 f    CIL library: CIL module
 0001:00009d08       ?SetPluginUpdateError@@YAXAAVLogger@@AAUUpdateInfo@PluginManager@@ABV?$basic_string@DU?$char_traits@D@std@@V?$allocator@D@2@@std@@@Z 1000ad08 f    CIL library: CIL module
 0001:0000af82       __catch$?reserve@?$vector@PAVDownload@@V?$allocator@PAVDownload@@@std@@@std@@QAEXI@Z$0 1000bf82 f i  CIL library: CIL module
 0001:0000af82       __catch$?reserve@?$vector@PAVPluginInstance@@V?$allocator@PAVPluginInstance@@@std@@@std@@QAEXI@Z$0 1000bf82 f i  CIL library: CIL module
 0001:0000af82       __catch$?reserve@?$vector@PAVUnityWebPlayerPluginInstance@@V?$allocator@PAVUnityWebPlayerPluginInstance@@@std@@@std@@QAEXI@Z$0 1000bf82 f i  CIL library: CIL module
 0001:0000b03c       __catch$?reserve@?$vector@UUpdateInfo@PluginManager@@V?$allocator@UUpdateInfo@PluginManager@@@std@@@std@@QAEXI@Z$0 1000c03c f i  CIL library: CIL module
 0001:0000b919       __catch$??$_Uninit_move@PAUUpdateInfo@PluginManager@@PAU12@V?$allocator@UUpdateInfo@PluginManager@@@std@@U12@@std@@YAPAUUpdateInfo@PluginManager@@PAU12@00AAV?$allocator@UUpdateInfo@PluginManager@@@0@0U_Nonscalar_ptr_iterator_tag@0@@Z$0 1000c919 f i  CIL library: CIL module
 0001:0000bd9c       ?png_decode@@YA_NPBXIAAV?$vector@EV?$allocator@E@std@@@std@@AAH2@Z 1000cd9c f    CIL library: CIL module
 0001:0000c039       ?InitializeImages@@YAXAAVSetup@progress@@PAUHDC__@@@Z 1000d039 f    CIL library: CIL module
 0001:0000c8ac       __catch$?reserve@?$vector@EV?$allocator@E@std@@@std@@QAEXI@Z$0 1000d8ac f i  CIL library: CIL module
 0001:0000d830       __catch$?reserve@?$vector@UWebMessage@@V?$allocator@UWebMessage@@@std@@@std@@QAEXI@Z$0 1000e830 f i  CIL library: CIL module
 0001:0000d985       __catch$??$_Uninit_move@PAUWebMessage@@PAU1@V?$allocator@UWebMessage@@@std@@U1@@std@@YAPAUWebMessage@@PAU1@00AAV?$allocator@UWebMessage@@@0@0U_Nonscalar_ptr_iterator_tag@0@@Z$0 1000e985 f i  CIL library: CIL module
 0001:00010b8d       __catch$??$_Buynode@V?$basic_string@DU?$char_traits@D@std@@V?$allocator@D@2@@std@@@?$_Tree_val@V?$_Tset_traits@V?$basic_string@DU?$char_traits@D@std@@V?$allocator@D@2@@std@@U?$less@V?$basic_string@DU?$char_traits@D@std@@V?$allocator@D@2@@std@@@2@V?$allocator@V?$basic_string@DU?$char_traits@D@std@@V?$allocator@D@2@@std@@@2@$0A@@std@@@std@@QAEPAU_Node@?$_Tree_nod@V?$_Tset_traits@V?$basic_string@DU?$char_traits@D@std@@V?$allocator@D@2@@std@@U?$less@V?$basic_string@DU?$char_traits@D@std@@V?$allocator@D@2@@std@@@2@V?$allocator@V?$basic_string@DU?$char_traits@D@std@@V?$allocator@D@2@@std@@@2@$0A@@std@@@1@$$QAV?$basic_string@DU?$char_traits@D@std@@V?$allocator@D@2@@1@@Z$0 10011b8d f i  CIL library: CIL module
 0001:00011418       ?DetectProcessIntegrityLevel@@YAKAAVLogger@@AA_N@Z 10012418 f    CIL library: CIL module
 0001:00011a0e       ?GetAppContainerToken@@YAHPAPA_W@Z 10012a0e f    CIL library: CIL module
 0001:0001217f       __catch$?_Buynode@?$_List_val@V?$ResourcePtr@VUpdateOperation@UpdaterProxy@@@@V?$allocator@V?$ResourcePtr@VUpdateOperation@UpdaterProxy@@@@@std@@@std@@QAEPAU_Node@?$_List_nod@V?$ResourcePtr@VUpdateOperation@UpdaterProxy@@@@V?$allocator@V?$ResourcePtr@VUpdateOperation@UpdaterProxy@@@@@std@@@2@PAU342@0ABV?$ResourcePtr@VUpdateOperation@UpdaterProxy@@@@@Z$0 1001317f f i  CIL library: CIL module
 0001:000124a8       __catch$??$_Buynode@U?$pair@$$CBIW4UpdateStatus@UpdaterProxy@@@std@@@?$_Tree_val@V?$_Tmap_traits@IW4UpdateStatus@UpdaterProxy@@U?$less@I@std@@V?$allocator@U?$pair@$$CBIW4UpdateStatus@UpdaterProxy@@@std@@@4@$0A@@std@@@std@@QAEPAU_Node@?$_Tree_nod@V?$_Tmap_traits@IW4UpdateStatus@UpdaterProxy@@U?$less@I@std@@V?$allocator@U?$pair@$$CBIW4UpdateStatus@UpdaterProxy@@@std@@@4@$0A@@std@@@1@$$QAU?$pair@$$CBIW4UpdateStatus@UpdaterProxy@@@1@@Z$0 100134a8 f i  CIL library: CIL module
 0001:000124a8       __catch$??$_Buynode@U?$pair@KPAVTimer@?A0xcd4663a9@@@std@@@?$_Tree_val@V?$_Tmap_traits@KPAVTimer@?A0xcd4663a9@@U?$less@K@std@@V?$allocator@U?$pair@$$CBKPAVTimer@?A0xcd4663a9@@@std@@@4@$0A@@std@@@std@@QAEPAU_Node@?$_Tree_nod@V?$_Tmap_traits@KPAVTimer@?A0xcd4663a9@@U?$less@K@std@@V?$allocator@U?$pair@$$CBKPAVTimer@?A0xcd4663a9@@@std@@@4@$0A@@std@@@1@$$QAU?$pair@KPAVTimer@?A0xcd4663a9@@@1@@Z$0 100134a8 f i  CIL library: CIL module
 0001:00013180       ?CreatePipeSecurity@@YAHAAU_SECURITY_ATTRIBUTES@@PB_W@Z 10014180 f    CIL library: CIL module
 0001:00013458       ?zipExtractCurrentFile@@YA_NPAXABV?$basic_string@DU?$char_traits@D@std@@V?$allocator@D@2@@std@@@Z 10014458 f    CIL library: CIL module
 0001:00013d1c       ?AppendPathNameImpl@@YAXABV?$basic_string@DU?$char_traits@D@std@@V?$allocator@D@2@@std@@0DAAV12@@Z 10014d1c f    CIL library: CIL module
 0001:00013f51       ?LibpngReadWarningFunc@@YAXPAUpng_struct_def@@PBD@Z 10014f51 f    CIL library: CIL module
 0001:00013f52       ?LibpngReadFuncWrapper@@YAXPAUpng_struct_def@@PAEI@Z 10014f52 f    CIL library: CIL module
 0001:00014290       ?ReadString@@YA_NAAPBEPBEAAV?$basic_string@DU?$char_traits@D@std@@V?$allocator@D@2@@std@@@Z 10015290 f    CIL library: CIL module
 0001:000142c8       ??$ReadBigEndian@K@@YA_NAAPBEPBEAAK@Z 100152c8 f    CIL library: CIL module
 0001:00014300       ??$ReadBigEndian@_K@@YA_NAAPBEPBEAA_K@Z 10015300 f    CIL library: CIL module
 0001:0001443e       __catch$??$_Construct@PBE@?$basic_string@DU?$char_traits@D@std@@V?$allocator@D@2@@std@@QAEXPBE0Uforward_iterator_tag@1@@Z$0 1001543e f i  CIL library: CIL module
 0001:0001785e       __catch$??$_Construct@PA_W@?$basic_string@_WU?$char_traits@_W@std@@V?$allocator@_W@2@@std@@QAEXPA_W0Uforward_iterator_tag@1@@Z$0 1001885e f i  CIL library: CIL module
 0001:000199bd       __onexit_nolock            1001a9bd f   LIBCMT:onexit.obj
 0001:0001a1cb       ___DllMainCRTStartup       1001b1cb f   LIBCMT:dllcrt0.obj
 0001:0001a5b6       ?strtoxl@@YAKPAUlocaleinfo_struct@@PBDPAPBDHH@Z 1001b5b6 f   LIBCMT:strtol.obj
 0001:0001ae4b       _flsall                    1001be4b f   LIBCMT:fflush.obj
 0001:0001c562       ?CPtoLCID@@YAHH@Z          1001d562 f   LIBCMT:mbctype.obj
 0001:0001c591       ?setSBCS@@YAXPAUthreadmbcinfostruct@@@Z 1001d591 f   LIBCMT:mbctype.obj
 0001:0001c5f5       ?setSBUpLow@@YAXPAUthreadmbcinfostruct@@@Z 1001d5f5 f   LIBCMT:mbctype.obj
 0001:0001c829       ?getSystemCP@@YAHH@Z       1001d829 f   LIBCMT:mbctype.obj
 0001:0001d971       _doexit                    1001e971 f   LIBCMT:crt0dat.obj
 0001:0001dd0f       ?__crtLCMapStringA_stat@@YAHPAUlocaleinfo_struct@@KKPBDHPADHHH@Z 1001ed0f f   LIBCMT:a_map.obj
 0001:0001e642       _write_char                1001f642 f   LIBCMT:output.obj
 0001:0001e675       _write_string              1001f675 f   LIBCMT:output.obj
 0001:0001f653       _parse_cmdline             10020653 f   LIBCMT:stdargv.obj
 0001:0001fbe0       _siglookup                 10020be0 f   LIBCMT:winsig.obj
 0001:000203cb       __catch$??2@YAPAXIABUnothrow_t@std@@@Z$0 100213cb f   LIBCMT:newopnt.obj
 0001:00021130       __unwind_handler4          10022130 f   LIBCMT:exsup4.obj
 0001:000211f2       __tzset_nolock             100221f2 f   LIBCMT:tzset.obj
 0001:00021505       _cvtdate                   10022505 f   LIBCMT:tzset.obj
 0001:000216fc       __isindst_nolock           100226fc f   LIBCMT:tzset.obj
 0001:00022990       __unwind_handler           10023990 f   LIBCMT:exsup.obj
 0001:00022af2       ?__crtGetStringTypeA_stat@@YAHPAUlocaleinfo_struct@@KPBDHPAGHHH@Z 10023af2 f   LIBCMT:a_str.obj
 0001:00023ca5       ?x_ismbbtype_l@@YAHPAUlocaleinfo_struct@@IHH@Z 10024ca5 f   LIBCMT:ismbbyte.obj
 0001:00023ef7       ?__crtCompareStringA_stat@@YAHPAUlocaleinfo_struct@@KKPBDH1HH@Z 10024ef7 f   LIBCMT:a_cmp.obj
 0001:00024291       _findenv                   10025291 f   LIBCMT:setenv.obj
 0001:000242e3       _copy_environ              100252e3 f   LIBCMT:setenv.obj
 0001:00024648       ?CatchGuardHandler@@YA?AW4_EXCEPTION_DISPOSITION@@PAUEHExceptionRecord@@PAUCatchGuardRN@@PAX2@Z 10025648 f   LIBCMT:_trnsctrl_.obj
 0001:00024752       ?TranslatorGuardHandler@@YA?AW4_EXCEPTION_DISPOSITION@@PAUEHExceptionRecord@@PAUTranslatorGuardRN@@PAX2@Z 10025752 f   LIBCMT:_trnsctrl_.obj
 0001:00024dfa       __tsopen_nolock            10025dfa f   LIBCMT:wopen.obj
 0001:000259fe       ?ExFilterRethrow@@YAHPAU_EXCEPTION_POINTERS@@@Z 100269fe f   LIBCMT:frame.obj
 0001:00025ac1       ?IsInExceptionSpec@@YAEPAUEHExceptionRecord@@PBU_s_ESTypeList@@@Z 10026ac1 f   LIBCMT:frame.obj
 0001:00025b37       ?CallUnexpected@@YAXPBU_s_ESTypeList@@@Z 10026b37 f   LIBCMT:frame.obj
 0001:00025b68       __catch$?CallUnexpected@@YAXPBU_s_ESTypeList@@@Z$0 10026b68 f   LIBCMT:frame.obj
 0001:00025b80       ?CallCatchBlock@@YAPAXPAUEHExceptionRecord@@PAUEHRegistrationNode@@PAU_CONTEXT@@PBU_s_FuncInfo@@PAXHK@Z 10026b80 f   LIBCMT:frame.obj
 0001:00025f2d       ?CatchIt@@YAXPAUEHExceptionRecord@@PAUEHRegistrationNode@@PAU_CONTEXT@@PAXPBU_s_FuncInfo@@PBU_s_HandlerType@@PBU_s_CatchableType@@PBU_s_TryBlockMapEntry@@H1E@Z 10026f2d f   LIBCMT:frame.obj
 0001:00025f9b       ?FindHandlerForForeignException@@YAXPAUEHExceptionRecord@@PAUEHRegistrationNode@@PAU_CONTEXT@@PAXPBU_s_FuncInfo@@HH1@Z 10026f9b f   LIBCMT:frame.obj
 0001:000260a2       ?FindHandler@@YAXPAUEHExceptionRecord@@PAUEHRegistrationNode@@PAU_CONTEXT@@PAXPBU_s_FuncInfo@@EH1@Z 100270a2 f   LIBCMT:frame.obj
 0001:00026b35       _UNITY_png_do_read_intrapixel 10027b35 f   libpng:pngread.obj
 0001:000271aa       _UNITY_png_read_destroy    100281aa f   libpng:pngread.obj
 0001:0002787b       _UNITY_png_colorspace_endpoints_match 1002887b f   libpng:png.obj
 0001:00027933       _UNITY_png_colorspace_set_xy_and_XYZ 10028933 f   libpng:png.obj
 0001:000279dd       _UNITY_png_icc_tag_name    100289dd f   libpng:png.obj
 0001:00027a36       _is_ICC_signature_char     10028a36 f   libpng:png.obj
 0001:00027a60       _UNITY_png_icc_profile_error 10028a60 f   libpng:png.obj
 0001:00027ef9       _UNITY_png_compare_ICC_profile_with_sRGB 10028ef9 f   libpng:png.obj
 0001:0002838e       _UNITY_png_product2        1002938e f   libpng:png.obj
 0001:0002850c       _UNITY_png_build_16bit_table 1002950c f   libpng:png.obj
 0001:0002865e       _UNITY_png_build_16to8_table 1002965e f   libpng:png.obj
 0001:00028777       _UNITY_png_build_8bit_table 10029777 f   libpng:png.obj
 0001:00028c68       _UNITY_png_colorspace_check_gamma 10029c68 f   libpng:png.obj
 0001:00028d4b       _UNITY_png_xy_from_XYZ     10029d4b f   libpng:png.obj
 0001:00028e74       _UNITY_png_XYZ_from_xy     10029e74 f   libpng:png.obj
 0001:0002916d       _UNITY_png_colorspace_check_xy 1002a16d f   libpng:png.obj
 0001:000294b2       _UNITY_png_rtran_ok        1002a4b2 f   libpng:pngrtran.obj
 0001:00029510       _translate_gamma_flags     1002a510 f   libpng:pngrtran.obj
 0001:00029551       _convert_gamma_value       1002a551 f   libpng:pngrtran.obj
 0001:000296bc       _UNITY_png_init_palette_transformations 1002a6bc f   libpng:pngrtran.obj
 0001:00029788       _UNITY_png_init_rgb_transformations 1002a788 f   libpng:pngrtran.obj
 0001:0002a2ef       _UNITY_png_do_unpack       1002b2ef f   libpng:pngrtran.obj
 0001:0002a3fc       _UNITY_png_do_unshift      1002b3fc f   libpng:pngrtran.obj
 0001:0002a564       _UNITY_png_do_scale_16_to_8 1002b564 f   libpng:pngrtran.obj
 0001:0002a5b7       _UNITY_png_do_read_swap_alpha 1002b5b7 f   libpng:pngrtran.obj
 0001:0002a6b5       _UNITY_png_do_read_invert_alpha 1002b6b5 f   libpng:pngrtran.obj
 0001:0002a75a       _UNITY_png_do_read_filler  1002b75a f   libpng:pngrtran.obj
 0001:0002a98d       _UNITY_png_do_gray_to_rgb  1002b98d f   libpng:pngrtran.obj
 0001:0002aacf       _UNITY_png_do_compose      1002bacf f   libpng:pngrtran.obj
 0001:0002b9e6       _UNITY_png_do_gamma        1002c9e6 f   libpng:pngrtran.obj
 0001:0002bd54       _UNITY_png_do_encode_alpha 1002cd54 f   libpng:pngrtran.obj
 0001:0002bdfe       _UNITY_png_do_expand_palette 1002cdfe f   libpng:pngrtran.obj
 0001:0002bff5       _UNITY_png_do_expand       1002cff5 f   libpng:pngrtran.obj
 0001:0002cb77       _UNITY_png_format_buffer   1002db77 f   libpng:pngerror.obj
 0001:0002d8c2       _UNITY_png_get_fixed_point 1002e8c2 f   libpng:pngrutil.obj
 0001:0002da1f       _UNITY_png_read_buffer     1002ea1f f   libpng:pngrutil.obj
 0001:0002da84       _UNITY_png_inflate_claim   1002ea84 f   libpng:pngrutil.obj
 0001:0002db29       _UNITY_png_inflate         1002eb29 f   libpng:pngrutil.obj
 0001:0002dc2e       _UNITY_png_decompress_chunk 1002ec2e f   libpng:pngrutil.obj
 0001:0002dde6       _UNITY_png_inflate_read    1002ede6 f   libpng:pngrutil.obj
 0001:0002e59b       _UNITY_png_read_filter_row_sub 1002f59b f   libpng:pngrutil.obj
 0001:0002e5cf       _UNITY_png_read_filter_row_up 1002f5cf f   libpng:pngrutil.obj
 0001:0002e5f3       _UNITY_png_read_filter_row_avg 1002f5f3 f   libpng:pngrutil.obj
 0001:0002e646       _UNITY_png_read_filter_row_paeth_1byte_pixel 1002f646 f   libpng:pngrutil.obj
 0001:0002e6dd       _UNITY_png_read_filter_row_paeth_multibyte_pixel 1002f6dd f   libpng:pngrutil.obj
 0001:0002e79a       _UNITY_png_init_filter_functions 1002f79a f   libpng:pngrutil.obj
 0001:00030648       _UNITY_png_malloc_array_checked 10031648 f   libpng:pngmem.obj
 0001:0003086b       _update_keys               1003186b f   zlib:unzip.obj
 0001:000308b0       _unzlocal_getByte          100318b0 f   zlib:unzip.obj
 0001:000308e9       _unzlocal_getShort         100318e9 f   zlib:unzip.obj
 0001:0003092f       _unzlocal_getLong          1003192f f   zlib:unzip.obj
 0001:000309a7       _unzlocal_SearchCentralDir 100319a7 f   zlib:unzip.obj
 0001:00030acf       _unzlocal_GetCurrentFileInfoInternal 10031acf f   zlib:unzip.obj
 0001:00030edb       _unzlocal_CheckCurrentFileCoherencyHeader 10031edb f   zlib:unzip.obj
 0001:00031988       _updatewindow              10032988 f   zlib:inflate.obj
 0001:00032d07       _flush_pending             10033d07 f   zlib:deflate.obj
 0001:00032d54       _longest_match             10033d54 f   zlib:deflate.obj
 0001:00032e9e       _longest_match_fast        10033e9e f   zlib:deflate.obj
 0001:00032f2c       _fill_window               10033f2c f   zlib:deflate.obj
 0001:0003307a       _deflate_stored            1003407a f   zlib:deflate.obj
 0001:000331a4       _deflate_fast              100341a4 f   zlib:deflate.obj
 0001:0003349f       _deflate_slow              1003449f f   zlib:deflate.obj
 0001:0003387c       _crc32_little              1003487c f   zlib:crc32.obj
 0001:000345fa       _init_block                100355fa f   zlib:trees.obj
 0001:0003465f       _pqdownheap                1003565f f   zlib:trees.obj
 0001:0003470f       _gen_bitlen                1003570f f   zlib:trees.obj
 0001:000348de       _scan_tree                 100358de f   zlib:trees.obj
 0001:000349a6       _send_tree                 100359a6 f   zlib:trees.obj
 0001:00034e7e       _send_all_trees            10035e7e f   zlib:trees.obj
 0001:000350aa       _compress_block            100360aa f   zlib:trees.obj
 0001:00035445       _set_data_type             10036445 f   zlib:trees.obj
 0001:00035487       _bi_windup                 10036487 f   zlib:trees.obj
 0001:000354df       _copy_block                100364df f   zlib:trees.obj
 0001:0003555f       _build_tree                1003655f f   zlib:trees.obj
 0001:000357a0       _build_bl_tree             100367a0 f   zlib:trees.obj
 0001:00035ac9       ?FormatTime@@YAXPADU_FILETIME@@@Z 10036ac9 f   CrashHandlerLib:CrashHandler.obj
 0001:00035b3c       _swprintf                  10036b3c f   CrashHandlerLib:CrashHandler.obj
 0001:00035b58       ?hprintf@@YAXAAVWindowsFileTool@unity@@PAXPBDZZ 10036b58 f   CrashHandlerLib:CrashHandler.obj
 0001:00035bad       ?DumpMiniDump@@YA_NAAVWindowsFileTool@unity@@PAXPAU_EXCEPTION_POINTERS@@@Z 10036bad f   CrashHandlerLib:CrashHandler.obj
 0001:00035c47       ?DumpModuleInfo@@YA_NAAVWindowsFileTool@unity@@PAXPAUHINSTANCE__@@H@Z 10036c47 f   CrashHandlerLib:CrashHandler.obj
 0001:00035ef2       ?DumpModuleList@@YAXAAVWindowsFileTool@unity@@PAX@Z 10036ef2 f   CrashHandlerLib:CrashHandler.obj
 0001:00035f89       ?DumpSystemInformation@@YAXAAVWindowsFileTool@unity@@PAXQAD@Z 10036f89 f   CrashHandlerLib:CrashHandler.obj
 0001:000360e6       ?GetExceptionDescription@@YAPBDK@Z 100370e6 f   CrashHandlerLib:CrashHandler.obj
 0001:00036293       ?DumpStack@@YAXAAVWindowsFileTool@unity@@PAXPAK@Z 10037293 f   CrashHandlerLib:CrashHandler.obj
 0001:0003640b       ?DumpRegisters@@YAXAAVWindowsFileTool@unity@@PAXPAU_CONTEXT@@@Z 1003740b f   CrashHandlerLib:CrashHandler.obj
 0001:00036f6c       ?CustomUnhandledExceptionFilter@@YGJPAU_EXCEPTION_POINTERS@@@Z 10037f6c f   CrashHandlerLib:CrashHandler.obj
 0001:0003880b       __shift                    1003980b f   LIBCMT:cvt.obj
 0001:00038850       __cftoe2_l                 10039850 f   LIBCMT:cvt.obj
 0001:00038e0e       __cftof2_l                 10039e0e f   LIBCMT:cvt.obj
 0001:0003bbf4       _write_char                1003cbf4 f   LIBCMT:woutput.obj
 0001:0003bc23       _write_string              1003cc23 f   LIBCMT:woutput.obj
 0001:0003c890       _ValidateScopeTableHandlers 1003d890 f   LIBCMT:eh3valid.obj
 0001:0003dfdf       __tsopen_nolock            1003efdf f   LIBCMT:open.obj
 0001:0003f5fa       __hw_cw                    100405fa f   LIBCMT:_ieee87_.obj
 0001:0003f688       ___hw_cw_sse2              10040688 f   LIBCMT:_ieee87_.obj
 0001:0003fbc0       __ehhandler$??2@YAPAXIABUnothrow_t@std@@@Z 10040bc0 f   LIBCMT:newopnt.obj
 0001:0003fbdb       __ehhandler$?CallUnexpected@@YAXPBU_s_ESTypeList@@@Z 10040bdb f   LIBCMT:frame.obj
 0001:0003fbf6       __ehhandler$?_Buynode@?$_List_val@V?$ResourcePtr@VUpdateOperation@UpdaterProxy@@@@V?$allocator@V?$ResourcePtr@VUpdateOperation@UpdaterProxy@@@@@std@@@std@@QAEPAU_Node@?$_List_nod@V?$ResourcePtr@VUpdateOperation@UpdaterProxy@@@@V?$allocator@V?$ResourcePtr@VUpdateOperation@UpdaterProxy@@@@@std@@@2@PAU342@0ABV?$ResourcePtr@VUpdateOperation@UpdaterProxy@@@@@Z 10040bf6 f    CIL library: CIL module
 0001:0003fc00       __ehhandler$?reserve@?$vector@EV?$allocator@E@std@@@std@@QAEXI@Z 10040c00 f    CIL library: CIL module
 0001:0003fc0a       __ehhandler$?reserve@?$vector@PAVDownload@@V?$allocator@PAVDownload@@@std@@@std@@QAEXI@Z 10040c0a f    CIL library: CIL module
 0001:0003fc0a       __ehhandler$?reserve@?$vector@PAVUnityWebPlayerPluginInstance@@V?$allocator@PAVUnityWebPlayerPluginInstance@@@std@@@std@@QAEXI@Z 10040c0a f    CIL library: CIL module
 0001:0003fc0a       __ehhandler$?reserve@?$vector@PAVPluginInstance@@V?$allocator@PAVPluginInstance@@@std@@@std@@QAEXI@Z 10040c0a f    CIL library: CIL module
 0001:0003fc14       __ehhandler$?_Buynode@?$_List_val@PAVDownloaderNetscape@@V?$allocator@PAVDownloaderNetscape@@@std@@@std@@QAEPAU_Node@?$_List_nod@PAVDownloaderNetscape@@V?$allocator@PAVDownloaderNetscape@@@std@@@2@PAU342@0ABQAVDownloaderNetscape@@@Z 10040c14 f    CIL library: CIL module
 0001:0003fc1e       __ehhandler$??$_Buynode@U?$pair@KPAVTimer@?A0xcd4663a9@@@std@@@?$_Tree_val@V?$_Tmap_traits@KPAVTimer@?A0xcd4663a9@@U?$less@K@std@@V?$allocator@U?$pair@$$CBKPAVTimer@?A0xcd4663a9@@@std@@@4@$0A@@std@@@std@@QAEPAU_Node@?$_Tree_nod@V?$_Tmap_traits@KPAVTimer@?A0xcd4663a9@@U?$less@K@std@@V?$allocator@U?$pair@$$CBKPAVTimer@?A0xcd4663a9@@@std@@@4@$0A@@std@@@1@$$QAU?$pair@KPAVTimer@?A0xcd4663a9@@@1@@Z 10040c1e f    CIL library: CIL module
 0001:0003fc1e       __ehhandler$??$_Buynode@U?$pair@$$CBIW4UpdateStatus@UpdaterProxy@@@std@@@?$_Tree_val@V?$_Tmap_traits@IW4UpdateStatus@UpdaterProxy@@U?$less@I@std@@V?$allocator@U?$pair@$$CBIW4UpdateStatus@UpdaterProxy@@@std@@@4@$0A@@std@@@std@@QAEPAU_Node@?$_Tree_nod@V?$_Tmap_traits@IW4UpdateStatus@UpdaterProxy@@U?$less@I@std@@V?$allocator@U?$pair@$$CBIW4UpdateStatus@UpdaterProxy@@@std@@@4@$0A@@std@@@1@$$QAU?$pair@$$CBIW4UpdateStatus@UpdaterProxy@@@1@@Z 10040c1e f    CIL library: CIL module
 0001:0003fc28       __ehhandler$?_Copy@?$basic_string@_WU?$char_traits@_W@std@@V?$allocator@_W@2@@std@@QAEXII@Z 10040c28 f    CIL library: CIL module
 0001:0003fc32       __ehhandler$??$_Insert@V?$_List_const_iterator@V?$_List_val@PAVDownloaderNetscape@@V?$allocator@PAVDownloaderNetscape@@@std@@@std@@@std@@@?$list@PAVDownloaderNetscape@@V?$allocator@PAVDownloaderNetscape@@@std@@@std@@QAEXV?$_List_const_iterator@V?$_List_val@PAVDownloaderNetscape@@V?$allocator@PAVDownloaderNetscape@@@std@@@std@@@1@00Uforward_iterator_tag@1@@Z 10040c32 f    CIL library: CIL module
 0001:0003fc3c       __ehhandler$??0?$list@PAVDownloaderNetscape@@V?$allocator@PAVDownloaderNetscape@@@std@@@std@@QAE@ABV01@@Z 10040c3c f    CIL library: CIL module
 0001:0003fc46       __ehhandler$??$_Buynode@VPortRange@@@?$_List_val@VPortRange@@V?$allocator@VPortRange@@@std@@@std@@QAEPAU_Node@?$_List_nod@VPortRange@@V?$allocator@VPortRange@@@std@@@1@PAU231@0$$QAVPortRange@@@Z 10040c46 f    CIL library: CIL module
 0001:0003fc46       __ehhandler$?_Buynode@?$_List_val@VPortRange@@V?$allocator@VPortRange@@@std@@@std@@QAEPAU_Node@?$_List_nod@VPortRange@@V?$allocator@VPortRange@@@std@@@2@PAU342@0ABVPortRange@@@Z 10040c46 f    CIL library: CIL module
 0001:0003fc50       __ehhandler$??$_Buynode@U?$pair@PAVDownloaderNetscape@@PAU_NPStream@@@std@@@?$_Tree_val@V?$_Tmap_traits@PAVDownload@@PAU_NPStream@@U?$less@PAVDownload@@@std@@V?$allocator@U?$pair@QAVDownload@@PAU_NPStream@@@std@@@4@$0A@@std@@@std@@QAEPAU_Node@?$_Tree_nod@V?$_Tmap_traits@PAVDownload@@PAU_NPStream@@U?$less@PAVDownload@@@std@@V?$allocator@U?$pair@QAVDownload@@PAU_NPStream@@@std@@@4@$0A@@std@@@1@$$QAU?$pair@PAVDownloaderNetscape@@PAU_NPStream@@@1@@Z 10040c50 f    CIL library: CIL module
 0001:0003fc5a       __ehhandler$??$_Buynode@U?$pair@IPAVDownloaderNetscape@@@std@@@?$_Tree_val@V?$_Tmap_traits@IPAVDownloaderNetscape@@U?$less@I@std@@V?$allocator@U?$pair@$$CBIPAVDownloaderNetscape@@@std@@@3@$0A@@std@@@std@@QAEPAU_Node@?$_Tree_nod@V?$_Tmap_traits@IPAVDownloaderNetscape@@U?$less@I@std@@V?$allocator@U?$pair@$$CBIPAVDownloaderNetscape@@@std@@@3@$0A@@std@@@1@$$QAU?$pair@IPAVDownloaderNetscape@@@1@@Z 10040c5a f    CIL library: CIL module
 0001:0003fc64       __ehhandler$?_Copy@?$basic_string@DU?$char_traits@D@std@@V?$allocator@D@2@@std@@QAEXII@Z 10040c64 f    CIL library: CIL module
 0001:0003fc6e       __ehhandler$??$_Buynode@UShortChannelInfo@RevisionsQuery@@@?$_Tree_val@V?$_Tset_traits@UShortChannelInfo@RevisionsQuery@@U?$less@UShortChannelInfo@RevisionsQuery@@@std@@V?$allocator@UShortChannelInfo@RevisionsQuery@@@4@$0A@@std@@@std@@QAEPAU_Node@?$_Tree_nod@V?$_Tset_traits@UShortChannelInfo@RevisionsQuery@@U?$less@UShortChannelInfo@RevisionsQuery@@@std@@V?$allocator@UShortChannelInfo@RevisionsQuery@@@4@$0A@@std@@@1@$$QAUShortChannelInfo@RevisionsQuery@@@Z 10040c6e f    CIL library: CIL module
 0001:0003fc6e       __ehhandler$??$_Buynode@AAUShortChannelInfo@RevisionsQuery@@@?$_Tree_val@V?$_Tset_traits@UShortChannelInfo@RevisionsQuery@@U?$less@UShortChannelInfo@RevisionsQuery@@@std@@V?$allocator@UShortChannelInfo@RevisionsQuery@@@4@$0A@@std@@@std@@QAEPAU_Node@?$_Tree_nod@V?$_Tset_traits@UShortChannelInfo@RevisionsQuery@@U?$less@UShortChannelInfo@RevisionsQuery@@@std@@V?$allocator@UShortChannelInfo@RevisionsQuery@@@4@$0A@@std@@@1@AAUShortChannelInfo@RevisionsQuery@@@Z 10040c6e f    CIL library: CIL module
 0001:0003fc78       __ehhandler$?_Copy@?$_Tree@V?$_Tset_traits@UShortChannelInfo@RevisionsQuery@@U?$less@UShortChannelInfo@RevisionsQuery@@@std@@V?$allocator@UShortChannelInfo@RevisionsQuery@@@4@$0A@@std@@@std@@IAEPAU_Node@?$_Tree_nod@V?$_Tset_traits@UShortChannelInfo@RevisionsQuery@@U?$less@UShortChannelInfo@RevisionsQuery@@@std@@V?$allocator@UShortChannelInfo@RevisionsQuery@@@4@$0A@@std@@@2@PAU342@0@Z 10040c78 f    CIL library: CIL module
 0001:0003fc82       __ehhandler$??0?$_Tree@V?$_Tset_traits@UShortChannelInfo@RevisionsQuery@@U?$less@UShortChannelInfo@RevisionsQuery@@@std@@V?$allocator@UShortChannelInfo@RevisionsQuery@@@4@$0A@@std@@@std@@QAE@ABV01@@Z 10040c82 f    CIL library: CIL module
 0001:0003fc8c       __ehhandler$??$_Insert@V?$_List_const_iterator@V?$_List_val@VPortRange@@V?$allocator@VPortRange@@@std@@@std@@@std@@@?$list@VPortRange@@V?$allocator@VPortRange@@@std@@@std@@QAEXV?$_List_const_iterator@V?$_List_val@VPortRange@@V?$allocator@VPortRange@@@std@@@std@@@1@00Uforward_iterator_tag@1@@Z 10040c8c f    CIL library: CIL module
 0001:0003fc96       __ehhandler$??$_Buynode@U?$pair@$$CBV?$basic_string@DU?$char_traits@D@std@@V?$allocator@D@2@@std@@PAVCrossdomainPolicy@@@std@@@?$_Tree_val@V?$_Tmap_traits@V?$basic_string@DU?$char_traits@D@std@@V?$allocator@D@2@@std@@PAVCrossdomainPolicy@@U?$less@V?$basic_string@DU?$char_traits@D@std@@V?$allocator@D@2@@std@@@2@V?$allocator@U?$pair@$$CBV?$basic_string@DU?$char_traits@D@std@@V?$allocator@D@2@@std@@PAVCrossdomainPolicy@@@std@@@2@$0A@@std@@@std@@QAEPAU_Node@?$_Tree_nod@V?$_Tmap_traits@V?$basic_string@DU?$char_traits@D@std@@V?$allocator@D@2@@std@@PAVCrossdomainPolicy@@U?$less@V?$basic_string@DU?$char_traits@D@std@@V?$allocator@D@2@@std@@@2@V?$allocator@U?$pair@$$CBV?$basic_string@DU?$char_traits@D@std@@V?$allocator@D@2@@std@@PAVCrossdomainPolicy@@@std@@@2@$0A@@std@@@1@$$QAU?$pair@$$CBV?$basic_string@DU?$char_traits@D@std@@V?$allocator@D@2@@std@@PAVCrossdomainPolicy@@@1@@Z 10040c96 f    CIL library: CIL module
 0001:0003fca0       __ehhandler$??$_Buynode@U?$pair@$$CBV?$basic_string@DU?$char_traits@D@std@@V?$allocator@D@2@@std@@V?$list@PAVDownloaderNetscape@@V?$allocator@PAVDownloaderNetscape@@@std@@@2@@std@@@?$_Tree_val@V?$_Tmap_traits@V?$basic_string@DU?$char_traits@D@std@@V?$allocator@D@2@@std@@V?$list@PAVDownloaderNetscape@@V?$allocator@PAVDownloaderNetscape@@@std@@@2@U?$less@V?$basic_string@DU?$char_traits@D@std@@V?$allocator@D@2@@std@@@2@V?$allocator@U?$pair@$$CBV?$basic_string@DU?$char_traits@D@std@@V?$allocator@D@2@@std@@V?$list@PAVDownloaderNetscape@@V?$allocator@PAVDownloaderNetscape@@@std@@@2@@std@@@2@$0A@@std@@@std@@QAEPAU_Node@?$_Tree_nod@V?$_Tmap_traits@V?$basic_string@DU?$char_traits@D@std@@V?$allocator@D@2@@std@@V?$list@PAVDownloaderNetscape@@V?$allocator@PAVDownloaderNetscape@@@std@@@2@U?$less@V?$basic_string@DU?$char_traits@D@std@@V?$allocator@D@2@@std@@@2@V?$allocator@U?$pair@$$CBV?$basic_string@DU?$char_traits@D@std@@V?$allocator@D@2@@std@@V?$list@PAVDownloaderNetscape@@V?$allocator@PAVDownloaderNetscape@@@std@@@2@@std@@@2@$0A@@std@@@1@$$QAU?$pair@$$CBV?$basic_string@DU?$char_traits@D@std@@V?$allocator@D@2@@std@@V?$list@PAVDownloaderNetscape@@V?$allocator@PAVDownloaderNetscape@@@std@@@2@@1@@Z 10040ca0 f    CIL library: CIL module
 0001:0003fcaa       __ehhandler$??0?$list@VPortRange@@V?$allocator@VPortRange@@@std@@@std@@QAE@ABV01@@Z 10040caa f    CIL library: CIL module
 0001:0003fcb4       __ehhandler$??$_Construct@PA_W@?$basic_string@_WU?$char_traits@_W@std@@V?$allocator@_W@2@@std@@QAEXPA_W0Uforward_iterator_tag@1@@Z 10040cb4 f    CIL library: CIL module
 0001:0003fcbe       __ehhandler$??$_Construct@PBE@?$basic_string@DU?$char_traits@D@std@@V?$allocator@D@2@@std@@QAEXPBE0Uforward_iterator_tag@1@@Z 10040cbe f    CIL library: CIL module
 0001:0003fcc8       __ehhandler$??$_Buynode@V?$basic_string@DU?$char_traits@D@std@@V?$allocator@D@2@@std@@@?$_Tree_val@V?$_Tset_traits@V?$basic_string@DU?$char_traits@D@std@@V?$allocator@D@2@@std@@U?$less@V?$basic_string@DU?$char_traits@D@std@@V?$allocator@D@2@@std@@@2@V?$allocator@V?$basic_string@DU?$char_traits@D@std@@V?$allocator@D@2@@std@@@2@$0A@@std@@@std@@QAEPAU_Node@?$_Tree_nod@V?$_Tset_traits@V?$basic_string@DU?$char_traits@D@std@@V?$allocator@D@2@@std@@U?$less@V?$basic_string@DU?$char_traits@D@std@@V?$allocator@D@2@@std@@@2@V?$allocator@V?$basic_string@DU?$char_traits@D@std@@V?$allocator@D@2@@std@@@2@$0A@@std@@@1@$$QAV?$basic_string@DU?$char_traits@D@std@@V?$allocator@D@2@@1@@Z 10040cc8 f    CIL library: CIL module
 0001:0003fcd2       __ehhandler$??$_Uninit_move@PAUUpdateInfo@PluginManager@@PAU12@V?$allocator@UUpdateInfo@PluginManager@@@std@@U12@@std@@YAPAUUpdateInfo@PluginManager@@PAU12@00AAV?$allocator@UUpdateInfo@PluginManager@@@0@0U_Nonscalar_ptr_iterator_tag@0@@Z 10040cd2 f    CIL library: CIL module
 0001:0003fcdc       __ehhandler$?reserve@?$vector@UUpdateInfo@PluginManager@@V?$allocator@UUpdateInfo@PluginManager@@@std@@@std@@QAEXI@Z 10040cdc f    CIL library: CIL module
 0001:0003fce6       __ehhandler$??$_Uninit_move@PAUItem@ContextSubmenu@@PAU12@V?$allocator@UItem@ContextSubmenu@@@std@@U12@@std@@YAPAUItem@ContextSubmenu@@PAU12@00AAV?$allocator@UItem@ContextSubmenu@@@0@0U_Nonscalar_ptr_iterator_tag@0@@Z 10040ce6 f    CIL library: CIL module
 0001:0003fcf0       __ehhandler$?reserve@?$vector@UItem@ContextSubmenu@@V?$allocator@UItem@ContextSubmenu@@@std@@@std@@QAEXI@Z 10040cf0 f    CIL library: CIL module
 0001:0003fcfa       __ehhandler$?_Buynode@?$_List_val@VCrossdomainPolicyEntry@@V?$allocator@VCrossdomainPolicyEntry@@@std@@@std@@QAEPAU_Node@?$_List_nod@VCrossdomainPolicyEntry@@V?$allocator@VCrossdomainPolicyEntry@@@std@@@2@PAU342@0ABVCrossdomainPolicyEntry@@@Z 10040cfa f    CIL library: CIL module
 0001:0003fd04       __ehhandler$??$_Uninit_move@PAUWebMessage@@PAU1@V?$allocator@UWebMessage@@@std@@U1@@std@@YAPAUWebMessage@@PAU1@00AAV?$allocator@UWebMessage@@@0@0U_Nonscalar_ptr_iterator_tag@0@@Z 10040d04 f    CIL library: CIL module
 0001:0003fd0e       __ehhandler$?reserve@?$vector@UWebMessage@@V?$allocator@UWebMessage@@@std@@@std@@QAEXI@Z 10040d0e f    CIL library: CIL module
 0001:0003fd18       __ehhandler$??$_Uninit_move@PAUVariantValue@@PAU1@V?$allocator@UVariantValue@@@std@@U1@@std@@YAPAUVariantValue@@PAU1@00AAV?$allocator@UVariantValue@@@0@0U_Nonscalar_ptr_iterator_tag@0@@Z 10040d18 f    CIL library: CIL module
 0001:0003fd22       __ehhandler$?reserve@?$vector@UVariantValue@@V?$allocator@UVariantValue@@@std@@@std@@QAEXI@Z 10040d22 f    CIL library: CIL module
 0001:0003fd2c       ??__Eg_Downloads@@YAXXZ    10040d2c f    CIL library: CIL module
 0001:0003fd66       ??__Eg_DownloaderToStream@@YAXXZ 10040d66 f    CIL library: CIL module
 0001:0003fda0       ??__Eg_DownloadsMutex@@YAXXZ 10040da0 f    CIL library: CIL module
 0001:0003fdb6       ??__Eg_CrossdomainPolicyMgr@@YAXXZ 10040db6 f    CIL library: CIL module
 0001:0003fdc7       ??__E?ms_WindowClass@ContextMenu@@0VContextMenuWindowClass@@B@@YAXXZ 10040dc7 f    CIL library: CIL module
 0001:0003fdd8       ??__Eglobals@@YAXXZ        10040dd8 f    CIL library: CIL module
 0001:0003fdee       ??__Eg_InstanceCountMutex@@YAXXZ 10040dee f    CIL library: CIL module
 0001:0003fe04       ??__Eg_DownloadsMutex@@YAXXZ 10040e04 f    CIL library: CIL module
 0001:0003fe1a       ??__E?m_SingletonMutex@PluginManager@@0VMutex@@A@@YAXXZ 10040e1a f    CIL library: CIL module
 0001:0003fe30       ??__Es_Kernel32@?A0x6ec35eb3@@YAXXZ 10040e30 f    CIL library: CIL module
 0001:0003fe3c       ??__Es_GetTimeUS@?A0x6ec35eb3@@YAXXZ 10040e3c f    CIL library: CIL module
 0001:0003fe47       ??__Eg_cpuInfo@@YAXXZ      10040e47 f    CIL library: CIL module
 0001:0003fe52       ??__E?s_DefaultExecutionEnv@CrashHandler@@0AAVExecutionEnvironment@unity@@A@@YAXXZ 10040e52 f   CrashHandlerLib:CrashHandler.obj
 0001:0003fe72       ??__E?s_DefaultCrashReporter@CrashHandler@@0AAVCrashReporter@unity@@A@@YAXXZ 10040e72 f   CrashHandlerLib:CrashHandler.obj
 0001:0003fe92       ??__E?s_DefaultFileTool@CrashHandler@@0V?$auto_ptr@VWindowsFileTool@unity@@@std@@A@@YAXXZ 10040e92 f   CrashHandlerLib:CrashHandler.obj
 0001:0003fec6       ??__Fg_Downloads@@YAXXZ    10040ec6 f    CIL library: CIL module
 0001:0003feeb       ??__Fg_DownloaderToStream@@YAXXZ 10040eeb f    CIL library: CIL module
 0001:0003ff10       ??__Fg_DownloadsMutex@@YAXXZ 10040f10 f    CIL library: CIL module
 0001:0003ff1c       ??__Fg_CrossdomainPolicyMgr@@YAXXZ 10040f1c f    CIL library: CIL module
 0001:0003ff21       ??__F?ms_WindowClass@ContextMenu@@0VContextMenuWindowClass@@B@@YAXXZ 10040f21 f    CIL library: CIL module
 0001:0003ff3d       ??__Fglobals@@YAXXZ        10040f3d f    CIL library: CIL module
 0001:0003ff49       ??__Fg_InstanceCountMutex@@YAXXZ 10040f49 f    CIL library: CIL module
 0001:0003ff55       ??__Fg_DownloadsMutex@@YAXXZ 10040f55 f    CIL library: CIL module
 0001:0003ff61       ??__F?m_SingletonMutex@PluginManager@@0VMutex@@A@@YAXXZ 10040f61 f    CIL library: CIL module
 0001:0003ff6d       ??__Fs_Kernel32@?A0x6ec35eb3@@YAXXZ 10040f6d f    CIL library: CIL module
 0001:0003ff7e       ??__Fnomem@?5???2@YAPAXI@Z@YAXXZ 10040f7e f   LIBCMT:new.obj
 0001:0003ff92       ??__F$S1@@YAXXZ            10040f92 f   CrashHandlerLib:CrashHandler.obj
 0001:0003ff9d       ??__F$S2@@YAXXZ            10040f9d f   CrashHandlerLib:CrashHandler.obj
 0001:0003ffa8       ??__F?s_DefaultFileTool@CrashHandler@@0V?$auto_ptr@VWindowsFileTool@unity@@@std@@A@@YAXXZ 10040fa8 f   CrashHandlerLib:CrashHandler.obj
